

HI-TECH Software PIC LITE Macro Assembler V9.82 build 9453 
                                                                                               Fri Nov 13 23:36:56 2020

HI-TECH Software Omniscient Code Generator (Lite mode) build 9453
     1  0000                     opt subtitle "HI-TECH Software Omniscient Code Generator (Lite mode) build 9453"
     2                           
     3                           opt pagewidth 120
     4                           
     5                           	opt lm
     6                           
     7                           	processor	16F689
     8                           clrc	macro
     9                           	bcf	3,0
    10  0000                     	endm
    11                           clrz	macro
    12                           	bcf	3,2
    13  0000                     	endm
    14                           setc	macro
    15                           	bsf	3,0
    16  0000                     	endm
    17                           setz	macro
    18                           	bsf	3,2
    19  0000                     	endm
    20                           skipc	macro
    21                           	btfss	3,0
    22  0000                     	endm
    23                           skipz	macro
    24                           	btfss	3,2
    25  0000                     	endm
    26                           skipnc	macro
    27                           	btfsc	3,0
    28  0000                     	endm
    29                           skipnz	macro
    30                           	btfsc	3,2
    31  0000                     	endm
    32  0000                     indf	equ	0
    33  0000                     indf0	equ	0
    34  0002                     pc	equ	2
    35  0002                     pcl	equ	2
    36  0003                     status	equ	3
    37  0004                     fsr	equ	4
    38  0004                     fsr0	equ	4
    39  0001                     c	equ	1
    40  0000                     z	equ	0
    41  000A                     pclath	equ	10
    42                           	FNCALL	_main,_delay_x10ms
    43                           	FNCALL	_main,_port_init
    44                           	FNCALL	_main,_nop_10
    45                           	FNCALL	_main,_timer1_init
    46                           	FNCALL	_main,_sdn_reset
    47                           	FNCALL	_main,_SI4463_init
    48                           	FNCALL	_main,_rx_init
    49                           	FNCALL	_main,_clr_interrupt
    50                           	FNCALL	_main,_spi_read_fifo
    51                           	FNCALL	_main,_fifo_reset
    52                           	FNCALL	_main,_delay_1ms
    53                           	FNCALL	_rx_init,_fifo_reset
    54                           	FNCALL	_rx_init,_enable_rx_interrupt
    55                           	FNCALL	_rx_init,_clr_interrupt
    56                           	FNCALL	_rx_init,_rx_start
    57                           	FNCALL	_clr_interrupt,_spi_write
    58                           	FNCALL	_clr_interrupt,_spi_read
    59                           	FNCALL	_rx_start,_spi_write
    60                           	FNCALL	_enable_rx_interrupt,_spi_write
    61                           	FNCALL	_spi_read,_check_cts
    62                           	FNCALL	_spi_read,_spi_write
    63                           	FNCALL	_spi_read,_spi_byte
    64                           	FNCALL	_fifo_reset,_spi_write
    65                           	FNCALL	_SI4463_init,_spi_write
    66                           	FNCALL	_spi_write,_check_cts
    67                           	FNCALL	_spi_write,_spi_byte
    68                           	FNCALL	_spi_read_fifo,_check_cts
    69                           	FNCALL	_spi_read_fifo,_spi_byte
    70                           	FNCALL	_check_cts,_spi_byte
    71                           	FNCALL	_sdn_reset,_delay_1ms
    72                           	FNCALL	_sdn_reset,_spi_byte
    73                           	FNCALL	_delay_x10ms,_delay_10ms
    74                           	FNROOT	_main
    75                           	FNCALL	intlevel1,_ISR_timer
    76                           	global	intlevel1
    77                           	FNROOT	intlevel1
    78                           	global	_tx_ph_data
    79                           psect	strings,class=STRING,delta=2
    80                           global __pstrings
    81  0300                     __pstrings:
    82                           ;	global	stringdir,stringtab,__stringbase
    83  0300                     stringtab:
    84                           ;	String table - string pointers are 1 byte each
    85  0300  1BFF               	btfsc	(btemp+1),7
    86  0301  2B0A               	ljmp	stringcode
    87  0302  1383               	bcf	status,7
    88  0303  187F               	btfsc	(btemp+1),0
    89  0304  1783               	bsf	status,7
    90  0305  0800               	movf	indf,w
    91  0306  0A84               	incf fsr
    92  0307  1903               skipnz
    93  0308  0AFF               incf btemp+1
    94  0309  0008               	return
    95  030A                     stringcode:stringdir:
      + 030A                     stringdir:	
    96  030A  3003               movlw high(stringdir)
    97  030B  008A               movwf pclath
    98  030C  0804               movf fsr,w
    99  030D  0A84               incf fsr
   100  030E  0782               	addwf pc
   101  030F                     __stringbase:
   102  030F  3400               	retlw	0
   103                           psect	strings
   104                           	file	"C:\Users\Crow\Desktop\si4463_Vc2\SLAVE_MOD\master.c"
   105                           	line	87
   106  0310                     _tx_ph_data:
   107  0310  3473               	retlw	073h
   108  0311  3477               	retlw	077h
   109  0312  3477               	retlw	077h
   110  0313  3478               	retlw	078h
   111  0314  3441               	retlw	041h
   112  0315  3442               	retlw	042h
   113  0316  3443               	retlw	043h
   114  0317  3444               	retlw	044h
   115  0318  3445               	retlw	045h
   116  0319  3446               	retlw	046h
   117  031A  3447               	retlw	047h
   118  031B  3448               	retlw	048h
   119  031C  3449               	retlw	049h
   120  031D  346D               	retlw	06Dh
   121                           	global	_RF_POWER_UP_data
   122                           psect	strings
   123                           	file	"C:\Users\Crow\Desktop\si4463_Vc2\SLAVE_MOD\master.c"
   124                           	line	68
   125  031E                     _RF_POWER_UP_data:
   126  031E  3402               	retlw	02h
   127  031F  3401               	retlw	01h
   128  0320  3400               	retlw	0
   129  0321  3401               	retlw	01h
   130  0322  34C9               	retlw	0C9h
   131  0323  34C3               	retlw	0C3h
   132  0324  3480               	retlw	080h
   133                           	global	_AGC_WINDOW_SIZE_12_data
   134                           psect	strings
   135                           	file	"C:\Users\Crow\Desktop\si4463_Vc2\SLAVE_MOD\master.c"
   136                           	line	78
   137  0325                     _AGC_WINDOW_SIZE_12_data:
   138  0325  3411               	retlw	011h
   139  0326  3420               	retlw	020h
   140  0327  340C               	retlw	0Ch
   141  0328  3438               	retlw	038h
   142  0329  3411               	retlw	011h
   143  032A  34AB               	retlw	0ABh
   144  032B  34AB               	retlw	0ABh
   145  032C  3480               	retlw	080h
   146  032D  341A               	retlw	01Ah
   147  032E  34FF               	retlw	0FFh
   148  032F  34FF               	retlw	0FFh
   149  0330  3400               	retlw	0
   150  0331  342B               	retlw	02Bh
   151  0332  340C               	retlw	0Ch
   152  0333  34A4               	retlw	0A4h
   153  0334  3422               	retlw	022h
   154                           	global	_BCR_NCO_OFFSET_2_12_data
   155                           psect	strings
   156                           	file	"C:\Users\Crow\Desktop\si4463_Vc2\SLAVE_MOD\master.c"
   157                           	line	76
   158  0335                     _BCR_NCO_OFFSET_2_12_data:
   159  0335  3411               	retlw	011h
   160  0336  3420               	retlw	020h
   161  0337  340C               	retlw	0Ch
   162  0338  3424               	retlw	024h
   163  0339  3400               	retlw	0
   164  033A  34A7               	retlw	0A7h
   165  033B  34C6               	retlw	0C6h
   166  033C  3400               	retlw	0
   167  033D  3454               	retlw	054h
   168  033E  3402               	retlw	02h
   169  033F  34C2               	retlw	0C2h
   170  0340  3400               	retlw	0
   171  0341  3404               	retlw	04h
   172  0342  3432               	retlw	032h
   173  0343  3480               	retlw	080h
   174  0344  3407               	retlw	07h
   175                           	global	_COE13_7_0_12_data
   176                           psect	strings
   177                           	file	"C:\Users\Crow\Desktop\si4463_Vc2\SLAVE_MOD\master.c"
   178                           	line	80
   179  0345                     _COE13_7_0_12_data:
   180  0345  3411               	retlw	011h
   181  0346  3421               	retlw	021h
   182  0347  340C               	retlw	0Ch
   183  0348  3400               	retlw	0
   184  0349  34FF               	retlw	0FFh
   185  034A  34BA               	retlw	0BAh
   186  034B  340F               	retlw	0Fh
   187  034C  3451               	retlw	051h
   188  034D  34CF               	retlw	0CFh
   189  034E  34A9               	retlw	0A9h
   190  034F  34C9               	retlw	0C9h
   191  0350  34FC               	retlw	0FCh
   192  0351  341B               	retlw	01Bh
   193  0352  341E               	retlw	01Eh
   194  0353  340F               	retlw	0Fh
   195  0354  3401               	retlw	01h
   196                           	global	_COE1_7_0_12_data
   197                           psect	strings
   198                           	file	"C:\Users\Crow\Desktop\si4463_Vc2\SLAVE_MOD\master.c"
   199                           	line	81
   200  0355                     _COE1_7_0_12_data:
   201  0355  3411               	retlw	011h
   202  0356  3421               	retlw	021h
   203  0357  340C               	retlw	0Ch
   204  0358  340C               	retlw	0Ch
   205  0359  34FC               	retlw	0FCh
   206  035A  34FD               	retlw	0FDh
   207  035B  3415               	retlw	015h
   208  035C  34FF               	retlw	0FFh
   209  035D  3400               	retlw	0
   210  035E  340F               	retlw	0Fh
   211  035F  34FF               	retlw	0FFh
   212  0360  34BA               	retlw	0BAh
   213  0361  340F               	retlw	0Fh
   214  0362  3451               	retlw	051h
   215  0363  34CF               	retlw	0CFh
   216  0364  34A9               	retlw	0A9h
   217                           	global	_COE7_7_0_12_data
   218                           psect	strings
   219                           	file	"C:\Users\Crow\Desktop\si4463_Vc2\SLAVE_MOD\master.c"
   220                           	line	82
   221  0365                     _COE7_7_0_12_data:
   222  0365  3411               	retlw	011h
   223  0366  3421               	retlw	021h
   224  0367  340C               	retlw	0Ch
   225  0368  3418               	retlw	018h
   226  0369  34C9               	retlw	0C9h
   227  036A  34FC               	retlw	0FCh
   228  036B  341B               	retlw	01Bh
   229  036C  341E               	retlw	01Eh
   230  036D  340F               	retlw	0Fh
   231  036E  3401               	retlw	01h
   232  036F  34FC               	retlw	0FCh
   233  0370  34FD               	retlw	0FDh
   234  0371  3415               	retlw	015h
   235  0372  34FF               	retlw	0FFh
   236  0373  3400               	retlw	0
   237  0374  340F               	retlw	0Fh
   238                           	global	_RF_MODEM_MOD_TYPE_12_data
   239                           psect	strings
   240                           	file	"C:\Users\Crow\Desktop\si4463_Vc2\SLAVE_MOD\master.c"
   241                           	line	74
   242  0375                     _RF_MODEM_MOD_TYPE_12_data:
   243  0375  3411               	retlw	011h
   244  0376  3420               	retlw	020h
   245  0377  340C               	retlw	0Ch
   246  0378  3400               	retlw	0
   247  0379  3402               	retlw	02h
   248  037A  3400               	retlw	0
   249  037B  3407               	retlw	07h
   250  037C  3400               	retlw	0
   251  037D  342E               	retlw	02Eh
   252  037E  34E0               	retlw	0E0h
   253  037F  3401               	retlw	01h
   254  0380  34C9               	retlw	0C9h
   255  0381  34C3               	retlw	0C3h
   256  0382  3480               	retlw	080h
   257  0383  3400               	retlw	0
   258  0384  3401               	retlw	01h
   259                           	global	_RF_MODEM_TX_RAMP_DELAY_12_data
   260                           psect	strings
   261                           	file	"C:\Users\Crow\Desktop\si4463_Vc2\SLAVE_MOD\master.c"
   262                           	line	75
   263  0385                     _RF_MODEM_TX_RAMP_DELAY_12_data:
   264  0385  3411               	retlw	011h
   265  0386  3420               	retlw	020h
   266  0387  340C               	retlw	0Ch
   267  0388  3418               	retlw	018h
   268  0389  3401               	retlw	01h
   269  038A  3480               	retlw	080h
   270  038B  3408               	retlw	08h
   271  038C  3403               	retlw	03h
   272  038D  3480               	retlw	080h
   273  038E  3400               	retlw	0
   274  038F  3470               	retlw	070h
   275  0390  3420               	retlw	020h
   276  0391  340C               	retlw	0Ch
   277  0392  34E8               	retlw	0E8h
   278  0393  3403               	retlw	03h
   279  0394  340D               	retlw	0Dh
   280                           	global	_RF_FREQ_CONTROL_INTE_8_data
   281                           psect	strings
   282                           	file	"C:\Users\Crow\Desktop\si4463_Vc2\SLAVE_MOD\master.c"
   283                           	line	67
   284  0395                     _RF_FREQ_CONTROL_INTE_8_data:
   285  0395  3411               	retlw	011h
   286  0396  3440               	retlw	040h
   287  0397  3408               	retlw	08h
   288  0398  3400               	retlw	0
   289  0399  3438               	retlw	038h
   290  039A  340E               	retlw	0Eh
   291  039B  3466               	retlw	066h
   292  039C  3466               	retlw	066h
   293  039D  3444               	retlw	044h
   294  039E  3444               	retlw	044h
   295  039F  3420               	retlw	020h
   296  03A0  34FE               	retlw	0FEh
   297                           	global	_RF_MODEM_RAW_CONTROL_8_data
   298                           psect	strings
   299                           	file	"C:\Users\Crow\Desktop\si4463_Vc2\SLAVE_MOD\master.c"
   300                           	line	79
   301  03A1                     _RF_MODEM_RAW_CONTROL_8_data:
   302  03A1  3411               	retlw	011h
   303  03A2  3420               	retlw	020h
   304  03A3  3408               	retlw	08h
   305  03A4  3445               	retlw	045h
   306  03A5  3483               	retlw	083h
   307  03A6  3401               	retlw	01h
   308  03A7  3455               	retlw	055h
   309  03A8  3402               	retlw	02h
   310  03A9  3480               	retlw	080h
   311  03AA  34FF               	retlw	0FFh
   312  03AB  3408               	retlw	08h
   313  03AC  3400               	retlw	0
   314                           	global	_RF_SYNTH_PFDCP_CPFF_7_data
   315                           psect	strings
   316                           	file	"C:\Users\Crow\Desktop\si4463_Vc2\SLAVE_MOD\master.c"
   317                           	line	83
   318  03AD                     _RF_SYNTH_PFDCP_CPFF_7_data:
   319  03AD  3411               	retlw	011h
   320  03AE  3423               	retlw	023h
   321  03AF  3407               	retlw	07h
   322  03B0  3400               	retlw	0
   323  03B1  342C               	retlw	02Ch
   324  03B2  340E               	retlw	0Eh
   325  03B3  340B               	retlw	0Bh
   326  03B4  3404               	retlw	04h
   327  03B5  340C               	retlw	0Ch
   328  03B6  3473               	retlw	073h
   329  03B7  3403               	retlw	03h
   330                           	global	_RF_FRR_CTL_A_MODE_4_data
   331                           psect	strings
   332                           	file	"C:\Users\Crow\Desktop\si4463_Vc2\SLAVE_MOD\master.c"
   333                           	line	70
   334  03B8                     _RF_FRR_CTL_A_MODE_4_data:
   335  03B8  3411               	retlw	011h
   336  03B9  3402               	retlw	02h
   337  03BA  3404               	retlw	04h
   338  03BB  3400               	retlw	0
   339  03BC  3400               	retlw	0
   340  03BD  3400               	retlw	0
   341  03BE  3400               	retlw	0
   342  03BF  3400               	retlw	0
   343                           	global	_RF_MODEM_AFC_LIMITER_1_3_data
   344                           psect	strings
   345                           	file	"C:\Users\Crow\Desktop\si4463_Vc2\SLAVE_MOD\master.c"
   346                           	line	77
   347  03C0                     _RF_MODEM_AFC_LIMITER_1_3_data:
   348  03C0  3411               	retlw	011h
   349  03C1  3420               	retlw	020h
   350  03C2  3403               	retlw	03h
   351  03C3  3430               	retlw	030h
   352  03C4  3417               	retlw	017h
   353  03C5  342A               	retlw	02Ah
   354  03C6  3480               	retlw	080h
   355                           	global	_RF_MODEM_RAW_SEARCH2_2_data
   356                           psect	strings
   357                           	file	"C:\Users\Crow\Desktop\si4463_Vc2\SLAVE_MOD\master.c"
   358                           	line	84
   359  03C7                     _RF_MODEM_RAW_SEARCH2_2_data:
   360  03C7  3411               	retlw	011h
   361  03C8  3420               	retlw	020h
   362  03C9  3402               	retlw	02h
   363  03CA  3450               	retlw	050h
   364  03CB  3484               	retlw	084h
   365  03CC  340A               	retlw	0Ah
   366                           	global	_RF_MODEM_AGC_CONTROL_1_data
   367                           psect	strings
   368                           	file	"C:\Users\Crow\Desktop\si4463_Vc2\SLAVE_MOD\master.c"
   369                           	line	73
   370  03CD                     _RF_MODEM_AGC_CONTROL_1_data:
   371  03CD  3411               	retlw	011h
   372  03CE  3420               	retlw	020h
   373  03CF  3401               	retlw	01h
   374  03D0  3435               	retlw	035h
   375  03D1  34E2               	retlw	0E2h
   376                           	global	_RF_MODEM_FREQ_DEV_0_1_data
   377                           psect	strings
   378                           	file	"C:\Users\Crow\Desktop\si4463_Vc2\SLAVE_MOD\master.c"
   379                           	line	72
   380  03D2                     _RF_MODEM_FREQ_DEV_0_1_data:
   381  03D2  3411               	retlw	011h
   382  03D3  3420               	retlw	020h
   383  03D4  3401               	retlw	01h
   384  03D5  340C               	retlw	0Ch
   385  03D6  345E               	retlw	05Eh
   386                           	global	_tx_ph_data
   387                           	global	_RF_POWER_UP_data
   388                           	global	_AGC_WINDOW_SIZE_12_data
   389                           	global	_BCR_NCO_OFFSET_2_12_data
   390                           	global	_COE13_7_0_12_data
   391                           	global	_COE1_7_0_12_data
   392                           	global	_COE7_7_0_12_data
   393                           	global	_RF_MODEM_MOD_TYPE_12_data
   394                           	global	_RF_MODEM_TX_RAMP_DELAY_12_data
   395                           	global	_RF_FREQ_CONTROL_INTE_8_data
   396                           	global	_RF_MODEM_RAW_CONTROL_8_data
   397                           	global	_RF_SYNTH_PFDCP_CPFF_7_data
   398                           	global	_RF_FRR_CTL_A_MODE_4_data
   399                           	global	_RF_MODEM_AFC_LIMITER_1_3_data
   400                           	global	_RF_MODEM_RAW_SEARCH2_2_data
   401                           	global	_RF_MODEM_AGC_CONTROL_1_data
   402                           	global	_RF_MODEM_FREQ_DEV_0_1_data
   403                           	global	_rx_buf
   404                           	global	_spi_read_buf
   405                           	global	_count_1hz
   406                           	global	_rf_timeout
   407                           	global	_Flag
   408                           	global	_INTCON
   409  000B                     _INTCON	set	11
   410                           	global	_PORTC
   411  0007                     _PORTC	set	7
   412                           	global	_T1CON
   413  0010                     _T1CON	set	16
   414                           	global	_TMR1H
   415  000F                     _TMR1H	set	15
   416                           	global	_TMR1L
   417  000E                     _TMR1L	set	14
   418                           	global	_CARRY
   419  0018                     _CARRY	set	24
   420                           	global	_GIE
   421  005F                     _GIE	set	95
   422                           	global	_RC0
   423  0038                     _RC0	set	56
   424                           	global	_RC1
   425  0039                     _RC1	set	57
   426                           	global	_RC2
   427  003A                     _RC2	set	58
   428                           	global	_RC3
   429  003B                     _RC3	set	59
   430                           	global	_RC5
   431  003D                     _RC5	set	61
   432                           	global	_RC6
   433  003E                     _RC6	set	62
   434                           	global	_RC7
   435  003F                     _RC7	set	63
   436                           	global	_TMR1IF
   437  0060                     _TMR1IF	set	96
   438                           	global	_IOCA
   439  0096                     _IOCA	set	150
   440                           	global	_OSCCON
   441  008F                     _OSCCON	set	143
   442                           	global	_TRISA
   443  0085                     _TRISA	set	133
   444                           	global	_TRISC
   445  0087                     _TRISC	set	135
   446                           	global	_WDTCON
   447  0097                     _WDTCON	set	151
   448                           	global	_WPUA
   449  0095                     _WPUA	set	149
   450                           	global	_TMR1IE
   451  0460                     _TMR1IE	set	1120
   452                           	global	_ANSEL
   453  011E                     _ANSEL	set	286
   454                           	global	_ANSELH
   455  011F                     _ANSELH	set	287
   456                           	global	_EEADR
   457  010D                     _EEADR	set	269
   458                           	global	_EEDATA
   459  010C                     _EEDATA	set	268
   460                           	global	_EECON1
   461  018C                     _EECON1	set	396
   462                           	global	_EECON2
   463  018D                     _EECON2	set	397
   464                           	global	_RD
   465  0C60                     _RD	set	3168
   466                           	global	_WR
   467  0C61                     _WR	set	3169
   468                           	global	_WREN
   469  0C62                     _WREN	set	3170
   470                           	file	"C:\Users\Crow\AppData\Local\Temp\s3d4."
   471                           	line	#
   472                           psect cinit,class=CODE,delta=2
   473                           global start_initialization
   474  0702                     start_initialization:
   475                           
   476                           psect	bssBANK0,class=BANK0,space=1
   477                           global __pbssBANK0
   478  0020                     __pbssBANK0:
   479  0020                     _rx_buf:
   480  0020                            ds      25
   481                           
   482  0039                     _spi_read_buf:
   483  0039                            ds      20
   484                           
   485  004D                     _count_1hz:
   486  004D                            ds      2
   487                           
   488  004F                     _rf_timeout:
   489  004F                            ds      2
   490                           
   491  0051                     _Flag:
   492  0051                            ds      1
   493                           
   494                           psect clrtext,class=CODE,delta=2
   495                           global clear_ram
   496                           ;	Called with FSR containing the base address, and
   497                           ;	W with the last address+1
   498  070C                     clear_ram:
   499  070C  0064               	clrwdt			;clear the watchdog before getting into this loop
   500  070D                     clrloop:
   501  070D  0180               	clrf	indf		;clear RAM location pointed to by FSR
   502  070E  0A84               	incf	fsr,f		;increment pointer
   503  070F  0604               	xorwf	fsr,w		;XOR with final address
   504  0710  1903               	btfsc	status,2	;have we reached the end yet?
   505  0711  3400               	retlw	0		;all done for this memory range, return
   506  0712  0604               	xorwf	fsr,w		;XOR again to restore value
   507  0713  2F0D               	goto	clrloop		;do the next byte
   508                           
   509                           ; Clear objects allocated to BANK0
   510                           psect cinit,class=CODE,delta=2
   511  0702  1383               	bcf	status, 7	;select IRP bank0
   512  0703  3020               	movlw	low(__pbssBANK0)
   513  0704  0084               	movwf	fsr
   514  0705  3052               	movlw	low((__pbssBANK0)+032h)
   515  0706  118A  270C  118A   	fcall	clear_ram
   516                           psect cinit,class=CODE,delta=2
   517                           global end_of_initialization
   518                           
   519                           ;End of C runtime variable initialization code
   520                           
   521  0709                     end_of_initialization:
   522  0709  0183               clrf status
   523  070A  118A  2BD7         ljmp _main	;jump to C main() function
   524                           psect	cstackCOMMON,class=COMMON,space=1
   525                           global __pcstackCOMMON
   526  0070                     __pcstackCOMMON:
   527                           	global	?_port_init
   528  0070                     ?_port_init:	; 0 bytes @ 0x0
   529                           	global	?_nop_10
   530  0070                     ?_nop_10:	; 0 bytes @ 0x0
   531                           	global	?_timer1_init
   532  0070                     ?_timer1_init:	; 0 bytes @ 0x0
   533                           	global	?_sdn_reset
   534  0070                     ?_sdn_reset:	; 0 bytes @ 0x0
   535                           	global	?_SI4463_init
   536  0070                     ?_SI4463_init:	; 0 bytes @ 0x0
   537                           	global	?_rx_init
   538  0070                     ?_rx_init:	; 0 bytes @ 0x0
   539                           	global	?_clr_interrupt
   540  0070                     ?_clr_interrupt:	; 0 bytes @ 0x0
   541                           	global	?_spi_read_fifo
   542  0070                     ?_spi_read_fifo:	; 0 bytes @ 0x0
   543                           	global	?_fifo_reset
   544  0070                     ?_fifo_reset:	; 0 bytes @ 0x0
   545                           	global	?_main
   546  0070                     ?_main:	; 0 bytes @ 0x0
   547                           	global	?_enable_rx_interrupt
   548  0070                     ?_enable_rx_interrupt:	; 0 bytes @ 0x0
   549                           	global	?_rx_start
   550  0070                     ?_rx_start:	; 0 bytes @ 0x0
   551                           	global	?_delay_10ms
   552  0070                     ?_delay_10ms:	; 0 bytes @ 0x0
   553                           	global	?_ISR_timer
   554  0070                     ?_ISR_timer:	; 0 bytes @ 0x0
   555                           	global	??_ISR_timer
   556  0070                     ??_ISR_timer:	; 0 bytes @ 0x0
   557                           	global	?_check_cts
   558  0070                     ?_check_cts:	; 1 bytes @ 0x0
   559                           	global	?_spi_byte
   560  0070                     ?_spi_byte:	; 1 bytes @ 0x0
   561  0070                     	ds	4
   562                           	global	??_port_init
   563  0074                     ??_port_init:	; 0 bytes @ 0x4
   564                           	global	??_nop_10
   565  0074                     ??_nop_10:	; 0 bytes @ 0x4
   566                           	global	??_timer1_init
   567  0074                     ??_timer1_init:	; 0 bytes @ 0x4
   568                           	global	?_delay_1ms
   569  0074                     ?_delay_1ms:	; 0 bytes @ 0x4
   570                           	global	??_spi_byte
   571  0074                     ??_spi_byte:	; 0 bytes @ 0x4
   572                           	global	??_delay_10ms
   573  0074                     ??_delay_10ms:	; 0 bytes @ 0x4
   574                           	global	delay_1ms@delay_time
   575  0074                     delay_1ms@delay_time:	; 2 bytes @ 0x4
   576                           	global	delay_10ms@i
   577  0074                     delay_10ms@i:	; 2 bytes @ 0x4
   578  0074                     	ds	1
   579                           	global	spi_byte@i
   580  0075                     spi_byte@i:	; 1 bytes @ 0x5
   581  0075                     	ds	1
   582                           	global	?_delay_x10ms
   583  0076                     ?_delay_x10ms:	; 0 bytes @ 0x6
   584                           	global	??_delay_1ms
   585  0076                     ??_delay_1ms:	; 0 bytes @ 0x6
   586                           	global	spi_byte@data
   587  0076                     spi_byte@data:	; 1 bytes @ 0x6
   588                           	global	delay_1ms@i
   589  0076                     delay_1ms@i:	; 2 bytes @ 0x6
   590                           	global	delay_x10ms@dx10ms
   591  0076                     delay_x10ms@dx10ms:	; 2 bytes @ 0x6
   592  0076                     	ds	1
   593                           	global	??_check_cts
   594  0077                     ??_check_cts:	; 0 bytes @ 0x7
   595  0077                     	ds	1
   596                           	global	??_delay_x10ms
   597  0078                     ??_delay_x10ms:	; 0 bytes @ 0x8
   598                           	global	??_sdn_reset
   599  0078                     ??_sdn_reset:	; 0 bytes @ 0x8
   600                           	global	check_cts@i
   601  0078                     check_cts@i:	; 1 bytes @ 0x8
   602                           	global	delay_x10ms@j
   603  0078                     delay_x10ms@j:	; 2 bytes @ 0x8
   604  0078                     	ds	1
   605                           	global	??_spi_read_fifo
   606  0079                     ??_spi_read_fifo:	; 0 bytes @ 0x9
   607                           	global	??_spi_write
   608  0079                     ??_spi_write:	; 0 bytes @ 0x9
   609                           	global	sdn_reset@i
   610  0079                     sdn_reset@i:	; 1 bytes @ 0x9
   611  0079                     	ds	1
   612                           	global	??_rx_init
   613  007A                     ??_rx_init:	; 0 bytes @ 0xA
   614                           psect	cstackBANK0,class=BANK0,space=1
   615                           global __pcstackBANK0
   616  0052                     __pcstackBANK0:
   617                           	global	?_spi_write
   618  0052                     ?_spi_write:	; 0 bytes @ 0x0
   619                           	global	spi_read_fifo@i
   620  0052                     spi_read_fifo@i:	; 1 bytes @ 0x0
   621                           	global	spi_write@p
   622  0052                     spi_write@p:	; 2 bytes @ 0x0
   623  0052                     	ds	2
   624                           	global	spi_write@tx_length
   625  0054                     spi_write@tx_length:	; 1 bytes @ 0x2
   626  0054                     	ds	1
   627                           	global	spi_write@j
   628  0055                     spi_write@j:	; 1 bytes @ 0x3
   629  0055                     	ds	1
   630                           	global	spi_write@i
   631  0056                     spi_write@i:	; 1 bytes @ 0x4
   632  0056                     	ds	1
   633                           	global	??_SI4463_init
   634  0057                     ??_SI4463_init:	; 0 bytes @ 0x5
   635                           	global	??_fifo_reset
   636  0057                     ??_fifo_reset:	; 0 bytes @ 0x5
   637                           	global	?_spi_read
   638  0057                     ?_spi_read:	; 0 bytes @ 0x5
   639                           	global	??_enable_rx_interrupt
   640  0057                     ??_enable_rx_interrupt:	; 0 bytes @ 0x5
   641                           	global	??_rx_start
   642  0057                     ??_rx_start:	; 0 bytes @ 0x5
   643                           	global	spi_read@api_command
   644  0057                     spi_read@api_command:	; 1 bytes @ 0x5
   645  0057                     	ds	1
   646                           	global	??_spi_read
   647  0058                     ??_spi_read:	; 0 bytes @ 0x6
   648                           	global	fifo_reset@p
   649  0058                     fifo_reset@p:	; 2 bytes @ 0x6
   650                           	global	enable_rx_interrupt@p
   651  0058                     enable_rx_interrupt@p:	; 7 bytes @ 0x6
   652                           	global	rx_start@p
   653  0058                     rx_start@p:	; 8 bytes @ 0x6
   654                           	global	SI4463_init@app_command_buf
   655  0058                     SI4463_init@app_command_buf:	; 20 bytes @ 0x6
   656  0058                     	ds	1
   657                           	global	spi_read@data_length
   658  0059                     spi_read@data_length:	; 1 bytes @ 0x7
   659  0059                     	ds	1
   660                           	global	spi_read@p
   661  005A                     spi_read@p:	; 1 bytes @ 0x8
   662  005A                     	ds	1
   663                           	global	spi_read@i
   664  005B                     spi_read@i:	; 1 bytes @ 0x9
   665  005B                     	ds	1
   666                           	global	??_clr_interrupt
   667  005C                     ??_clr_interrupt:	; 0 bytes @ 0xA
   668  005C                     	ds	1
   669                           	global	clr_interrupt@p
   670  005D                     clr_interrupt@p:	; 4 bytes @ 0xB
   671  005D                     	ds	15
   672                           	global	??_main
   673  006C                     ??_main:	; 0 bytes @ 0x1A
   674  006C                     	ds	1
   675                           	global	main@chksum
   676  006D                     main@chksum:	; 1 bytes @ 0x1B
   677  006D                     	ds	1
   678                           	global	main@i
   679  006E                     main@i:	; 1 bytes @ 0x1C
   680  006E                     	ds	1
   681 ;;Data sizes: Strings 0, constant 199, data 0, bss 50, persistent 0 stack 0
   682 ;;Auto spaces:   Size  Autos    Used
   683 ;; COMMON          14     10      10
   684 ;; BANK0           80     29      79
   685 ;; BANK1           80      0       0
   686 ;; BANK2           80      0       0
   687                           
   688 ;;
   689 ;; Pointer list with targets:
   690                           
   691 ;; spi_write@p	PTR unsigned char  size(2) Largest target is 20
   692 ;;		 -> spi_read@p(BANK0[1]), rx_start@p(BANK0[8]), tx_start@p(COMMON[5]), rf_standby@p(COMMON[2]), 
   693 ;;		 -> enable_tx_interrupt@p(COMMON[6]), enable_rx_interrupt@p(BANK0[7]), clr_interrupt@p(BANK0[4]), fifo_reset@p(BANK0
       [2]), 
   694 ;;		 -> RF_FREQ_CONTROL_INTE_8_data(CODE[12]), RF_MODEM_RAW_SEARCH2_2_data(CODE[6]), RF_SYNTH_PFDCP_CPFF_7_data(CODE[11]
       ), COE7_7_0_12_data(CODE[16]), 
   695 ;;		 -> COE1_7_0_12_data(CODE[16]), COE13_7_0_12_data(CODE[16]), RF_MODEM_RAW_CONTROL_8_data(CODE[12]), AGC_WINDOW_SIZE_
       12_data(CODE[16]), 
   696 ;;		 -> RF_MODEM_AGC_CONTROL_1_data(CODE[5]), RF_MODEM_AFC_LIMITER_1_3_data(CODE[7]), BCR_NCO_OFFSET_2_12_data(CODE[16])
       , RF_MODEM_TX_RAMP_DELAY_12_data(CODE[16]), 
   697 ;;		 -> RF_MODEM_FREQ_DEV_0_1_data(CODE[5]), RF_MODEM_MOD_TYPE_12_data(CODE[16]), RF_FRR_CTL_A_MODE_4_data(CODE[8]), SI4
       463_init@app_command_buf(BANK0[20]), 
   698 ;;
   699                           
   700                           
   701 ;;
   702 ;; Critical Paths under _main in COMMON
   703 ;;
   704 ;;   _main->_delay_x10ms
   705 ;;   _main->_sdn_reset
   706 ;;   _main->_spi_read_fifo
   707 ;;   _clr_interrupt->_spi_write
   708 ;;   _rx_start->_spi_write
   709 ;;   _enable_rx_interrupt->_spi_write
   710 ;;   _spi_read->_spi_write
   711 ;;   _fifo_reset->_spi_write
   712 ;;   _SI4463_init->_spi_write
   713 ;;   _spi_write->_check_cts
   714 ;;   _spi_read_fifo->_check_cts
   715 ;;   _check_cts->_spi_byte
   716 ;;   _sdn_reset->_delay_1ms
   717 ;;   _delay_x10ms->_delay_10ms
   718 ;;
   719 ;; Critical Paths under _ISR_timer in COMMON
   720 ;;
   721 ;;   None.
   722 ;;
   723 ;; Critical Paths under _main in BANK0
   724 ;;
   725 ;;   _main->_SI4463_init
   726 ;;   _rx_init->_clr_interrupt
   727 ;;   _clr_interrupt->_spi_read
   728 ;;   _rx_start->_spi_write
   729 ;;   _enable_rx_interrupt->_spi_write
   730 ;;   _spi_read->_spi_write
   731 ;;   _fifo_reset->_spi_write
   732 ;;   _SI4463_init->_spi_write
   733 ;;
   734 ;; Critical Paths under _ISR_timer in BANK0
   735 ;;
   736 ;;   None.
   737 ;;
   738 ;; Critical Paths under _main in BANK1
   739 ;;
   740 ;;   None.
   741 ;;
   742 ;; Critical Paths under _ISR_timer in BANK1
   743 ;;
   744 ;;   None.
   745 ;;
   746 ;; Critical Paths under _main in BANK2
   747 ;;
   748 ;;   None.
   749 ;;
   750 ;; Critical Paths under _ISR_timer in BANK2
   751 ;;
   752 ;;   None.
   753                           
   754 ;;
   755 ;;Main: autosize = 0, tempsize = 1, incstack = 0, save=0
   756 ;;
   757                           
   758 ;;
   759 ;;Call Graph Tables:
   760 ;;
   761 ;; ---------------------------------------------------------------------------------
   762 ;; (Depth) Function   	        Calls       Base Space   Used Autos Params    Refs
   763 ;; ---------------------------------------------------------------------------------
   764 ;; (0) _main                                                 3     3      0    7988
   765 ;;                                             26 BANK0      3     3      0
   766 ;;                        _delay_x10ms
   767 ;;                          _port_init
   768 ;;                             _nop_10
   769 ;;                        _timer1_init
   770 ;;                          _sdn_reset
   771 ;;                        _SI4463_init
   772 ;;                            _rx_init
   773 ;;                      _clr_interrupt
   774 ;;                      _spi_read_fifo
   775 ;;                         _fifo_reset
   776 ;;                          _delay_1ms
   777 ;; ---------------------------------------------------------------------------------
   778 ;; (1) _rx_init                                              0     0      0    2605
   779 ;;                         _fifo_reset
   780 ;;                _enable_rx_interrupt
   781 ;;                      _clr_interrupt
   782 ;;                           _rx_start
   783 ;; ---------------------------------------------------------------------------------
   784 ;; (1) _clr_interrupt                                        5     5      0    1159
   785 ;;                                             10 BANK0      5     5      0
   786 ;;                          _spi_write
   787 ;;                           _spi_read
   788 ;; ---------------------------------------------------------------------------------
   789 ;; (2) _rx_start                                             9     9      0     538
   790 ;;                                              5 BANK0      9     9      0
   791 ;;                          _spi_write
   792 ;; ---------------------------------------------------------------------------------
   793 ;; (2) _enable_rx_interrupt                                  8     8      0     514
   794 ;;                                              5 BANK0      8     8      0
   795 ;;                          _spi_write
   796 ;; ---------------------------------------------------------------------------------
   797 ;; (2) _spi_read                                             5     4      1     717
   798 ;;                                              5 BANK0      5     4      1
   799 ;;                          _check_cts
   800 ;;                          _spi_write
   801 ;;                           _spi_byte
   802 ;; ---------------------------------------------------------------------------------
   803 ;; (1) _fifo_reset                                           3     3      0     394
   804 ;;                                              5 BANK0      3     3      0
   805 ;;                          _spi_write
   806 ;; ---------------------------------------------------------------------------------
   807 ;; (1) _SI4463_init                                         21    21      0    3046
   808 ;;                                              5 BANK0     21    21      0
   809 ;;                          _spi_write
   810 ;; ---------------------------------------------------------------------------------
   811 ;; (2) _spi_write                                            6     4      2     346
   812 ;;                                              9 COMMON     1     1      0
   813 ;;                                              0 BANK0      5     3      2
   814 ;;                          _check_cts
   815 ;;                           _spi_byte
   816 ;; ---------------------------------------------------------------------------------
   817 ;; (1) _spi_read_fifo                                        2     2      0     301
   818 ;;                                              9 COMMON     1     1      0
   819 ;;                                              0 BANK0      1     1      0
   820 ;;                          _check_cts
   821 ;;                           _spi_byte
   822 ;; ---------------------------------------------------------------------------------
   823 ;; (3) _check_cts                                            2     2      0     116
   824 ;;                                              7 COMMON     2     2      0
   825 ;;                           _spi_byte
   826 ;; ---------------------------------------------------------------------------------
   827 ;; (1) _sdn_reset                                            2     2      0     230
   828 ;;                                              8 COMMON     2     2      0
   829 ;;                          _delay_1ms
   830 ;;                           _spi_byte
   831 ;; ---------------------------------------------------------------------------------
   832 ;; (1) _delay_x10ms                                          4     2      2      92
   833 ;;                                              6 COMMON     4     2      2
   834 ;;                         _delay_10ms
   835 ;; ---------------------------------------------------------------------------------
   836 ;; (2) _delay_10ms                                           2     2      0      46
   837 ;;                                              4 COMMON     2     2      0
   838 ;; ---------------------------------------------------------------------------------
   839 ;; (3) _spi_byte                                             3     3      0      93
   840 ;;                                              4 COMMON     3     3      0
   841 ;; ---------------------------------------------------------------------------------
   842 ;; (1) _delay_1ms                                            4     2      2      69
   843 ;;                                              4 COMMON     4     2      2
   844 ;; ---------------------------------------------------------------------------------
   845 ;; (1) _timer1_init                                          0     0      0       0
   846 ;; ---------------------------------------------------------------------------------
   847 ;; (1) _nop_10                                               0     0      0       0
   848 ;; ---------------------------------------------------------------------------------
   849 ;; (1) _port_init                                            0     0      0       0
   850 ;; ---------------------------------------------------------------------------------
   851 ;; Estimated maximum stack depth 3
   852 ;; ---------------------------------------------------------------------------------
   853 ;; (Depth) Function   	        Calls       Base Space   Used Autos Params    Refs
   854 ;; ---------------------------------------------------------------------------------
   855 ;; (7) _ISR_timer                                            4     4      0       0
   856 ;;                                              0 COMMON     4     4      0
   857 ;; ---------------------------------------------------------------------------------
   858 ;; Estimated maximum stack depth 7
   859 ;; ---------------------------------------------------------------------------------
   860                           
   861 ;; Call Graph Graphs:
   862                           
   863 ;; _main (ROOT)
   864 ;;   _delay_x10ms
   865 ;;     _delay_10ms
   866 ;;   _port_init
   867 ;;   _nop_10
   868 ;;   _timer1_init
   869 ;;   _sdn_reset
   870 ;;     _delay_1ms
   871 ;;     _spi_byte
   872 ;;   _SI4463_init
   873 ;;     _spi_write
   874 ;;       _check_cts
   875 ;;         _spi_byte
   876 ;;       _spi_byte
   877 ;;   _rx_init
   878 ;;     _fifo_reset
   879 ;;       _spi_write
   880 ;;         _check_cts
   881 ;;           _spi_byte
   882 ;;         _spi_byte
   883 ;;     _enable_rx_interrupt
   884 ;;       _spi_write
   885 ;;         _check_cts
   886 ;;           _spi_byte
   887 ;;         _spi_byte
   888 ;;     _clr_interrupt
   889 ;;       _spi_write
   890 ;;         _check_cts
   891 ;;           _spi_byte
   892 ;;         _spi_byte
   893 ;;       _spi_read
   894 ;;         _check_cts
   895 ;;           _spi_byte
   896 ;;         _spi_write
   897 ;;           _check_cts
   898 ;;             _spi_byte
   899 ;;           _spi_byte
   900 ;;         _spi_byte
   901 ;;     _rx_start
   902 ;;       _spi_write
   903 ;;         _check_cts
   904 ;;           _spi_byte
   905 ;;         _spi_byte
   906 ;;   _clr_interrupt
   907 ;;     _spi_write
   908 ;;       _check_cts
   909 ;;         _spi_byte
   910 ;;       _spi_byte
   911 ;;     _spi_read
   912 ;;       _check_cts
   913 ;;         _spi_byte
   914 ;;       _spi_write
   915 ;;         _check_cts
   916 ;;           _spi_byte
   917 ;;         _spi_byte
   918 ;;       _spi_byte
   919 ;;   _spi_read_fifo
   920 ;;     _check_cts
   921 ;;       _spi_byte
   922 ;;     _spi_byte
   923 ;;   _fifo_reset
   924 ;;     _spi_write
   925 ;;       _check_cts
   926 ;;         _spi_byte
   927 ;;       _spi_byte
   928 ;;   _delay_1ms
   929 ;;
   930 ;; _ISR_timer (ROOT)
   931 ;;
   932                           
   933 ;; Address spaces:
   934                           
   935 ;;Name               Size   Autos  Total    Cost      Usage
   936 ;;BITCOMMON            E      0       0       0        0.0%
   937 ;;EEDATA             100      0       0       0        0.0%
   938 ;;NULL                 0      0       0       0        0.0%
   939 ;;CODE                 0      0       0       0        0.0%
   940 ;;COMMON               E      A       A       1       71.4%
   941 ;;BITSFR0              0      0       0       1        0.0%
   942 ;;SFR0                 0      0       0       1        0.0%
   943 ;;BITSFR1              0      0       0       2        0.0%
   944 ;;SFR1                 0      0       0       2        0.0%
   945 ;;STACK                0      0       6       2        0.0%
   946 ;;BANK0               50     1D      4F       3       98.8%
   947 ;;BITBANK1            50      0       0       4        0.0%
   948 ;;BITSFR3              0      0       0       4        0.0%
   949 ;;SFR3                 0      0       0       4        0.0%
   950 ;;BANK1               50      0       0       5        0.0%
   951 ;;BITSFR2              0      0       0       5        0.0%
   952 ;;SFR2                 0      0       0       5        0.0%
   953 ;;BITBANK2            50      0       0       6        0.0%
   954 ;;BANK2               50      0       0       7        0.0%
   955 ;;ABS                  0      0      59       8        0.0%
   956 ;;BITBANK0            50      0       0       9        0.0%
   957 ;;DATA                 0      0      5F      10        0.0%
   958                           
   959                           	global	_main
   960                           psect	maintext,global,class=CODE,delta=2
   961                           global __pmaintext
   962  03D7                     __pmaintext:
   963                           
   964 ;; *************** function _main *****************
   965 ;; Defined at:
   966 ;;		line 125 in file "C:\Users\Crow\Desktop\si4463_Vc2\SLAVE_MOD\master.c"
   967 ;; Parameters:    Size  Location     Type
   968 ;;		None
   969 ;; Auto vars:     Size  Location     Type
   970 ;;  i               1   28[BANK0 ] unsigned char 
   971 ;;  chksum          1   27[BANK0 ] unsigned char 
   972 ;; Return value:  Size  Location     Type
   973 ;;		None               void
   974 ;; Registers used:
   975 ;;		wreg, fsr0l, fsr0h, status,2, status,0, btemp+1, pclath, cstack
   976 ;; Tracked objects:
   977 ;;		On entry : 17F/0
   978 ;;		On exit  : 0/0
   979 ;;		Unchanged: 0/0
   980 ;; Data sizes:     COMMON   BANK0   BANK1   BANK2
   981 ;;      Params:         0       0       0       0
   982 ;;      Locals:         0       2       0       0
   983 ;;      Temps:          0       1       0       0
   984 ;;      Totals:         0       3       0       0
   985 ;;Total ram usage:        3 bytes
   986 ;; Hardware stack levels required when called:    7
   987 ;; This function calls:
   988 ;;		_delay_x10ms
   989 ;;		_port_init
   990 ;;		_nop_10
   991 ;;		_timer1_init
   992 ;;		_sdn_reset
   993 ;;		_SI4463_init
   994 ;;		_rx_init
   995 ;;		_clr_interrupt
   996 ;;		_spi_read_fifo
   997 ;;		_fifo_reset
   998 ;;		_delay_1ms
   999 ;; This function is called by:
  1000 ;;		Startup code after reset
  1001 ;; This function uses a non-reentrant model
  1002 ;;
  1003                           psect	maintext
  1004                           	file	"C:\Users\Crow\Desktop\si4463_Vc2\SLAVE_MOD\master.c"
  1005                           	line	125
  1006                           	global	__size_of_main
  1007  008E                     	__size_of_main	equ	__end_of_main-_main
  1008                           	
  1009  03D7                     _main:	
  1010                           	opt	stack 1
  1011                           ; Regs used in _main: [wreg-fsr0h+status,2+status,0+btemp+1+pclath+cstack]
  1012                           	line	127
  1013                           	
  1014  03D7                     l4145:	
  1015                           ;master.c: 126: unsigned char i,chksum;
  1016                           ;master.c: 127: OSCCON = 0X70;
  1017  03D7  3070               	movlw	(070h)
  1018  03D8  1683               	bsf	status, 5	;RP0=1, select bank1
  1019  03D9  1303               	bcf	status, 6	;RP1=0, select bank1
  1020  03DA  008F               	movwf	(143)^080h	;volatile
  1021                           	line	129
  1022                           	
  1023  03DB                     l4147:	
  1024                           ;master.c: 129: WDTCON = 0X00;
  1025  03DB  0197               	clrf	(151)^080h	;volatile
  1026                           	line	130
  1027                           	
  1028  03DC                     l4149:	
  1029                           ;master.c: 130: delay_x10ms(50);
  1030  03DC  3032               	movlw	low(032h)
  1031  03DD  00F6               	movwf	(?_delay_x10ms)
  1032  03DE  3000               	movlw	high(032h)
  1033  03DF  00F7               	movwf	((?_delay_x10ms))+1
  1034  03E0  118A  2687  118A   	fcall	_delay_x10ms
  1035                           	line	132
  1036                           	
  1037  03E3                     l4151:	
  1038                           ;master.c: 132: port_init();
  1039  03E3  118A  26D9  118A   	fcall	_port_init
  1040                           	line	133
  1041                           	
  1042  03E6                     l4153:	
  1043                           ;master.c: 133: nop_10();
  1044  03E6  118A  26F7  118A   	fcall	_nop_10
  1045                           	line	135
  1046                           	
  1047  03E9                     l4155:	
  1048                           ;master.c: 135: RC7 = 0;
  1049  03E9  1283               	bcf	status, 5	;RP0=0, select bank0
  1050  03EA  1303               	bcf	status, 6	;RP1=0, select bank0
  1051  03EB  1387               	bcf	(63/8),(63)&7
  1052                           	line	136
  1053                           	
  1054  03EC                     l4157:	
  1055                           ;master.c: 136: RC6 = 0;
  1056  03EC  1307               	bcf	(62/8),(62)&7
  1057                           	line	137
  1058                           	
  1059  03ED                     l4159:	
  1060                           ;master.c: 137: timer1_init();
  1061  03ED  118A  26E9  118A   	fcall	_timer1_init
  1062                           	line	139
  1063                           	
  1064  03F0                     l4161:	
  1065                           # 139 "C:\Users\Crow\Desktop\si4463_Vc2\SLAVE_MOD\master.c"
  1066  03F0  0000               nop ;#
  1067                           psect	maintext
  1068                           	line	141
  1069                           	
  1070  03F1                     l4163:	
  1071                           ;master.c: 141: sdn_reset();
  1072  03F1  118A  24BE  118A   	fcall	_sdn_reset
  1073                           	line	142
  1074                           	
  1075  03F4                     l4165:	
  1076                           ;master.c: 142: SI4463_init();
  1077  03F4  118A  2013  118A   	fcall	_SI4463_init
  1078                           	line	143
  1079                           	
  1080  03F7                     l4167:	
  1081                           ;master.c: 143: rx_init();
  1082  03F7  118A  26C9  118A   	fcall	_rx_init
  1083                           	line	145
  1084                           	
  1085  03FA                     l4169:	
  1086                           ;master.c: 145: count_1hz = 0;
  1087  03FA  1283               	bcf	status, 5	;RP0=0, select bank0
  1088  03FB  1303               	bcf	status, 6	;RP1=0, select bank0
  1089  03FC  01CD               	clrf	(_count_1hz)
  1090  03FD  01CE               	clrf	(_count_1hz+1)
  1091                           	line	146
  1092                           	
  1093  03FE                     l4171:	
  1094                           ;master.c: 146: Flag.reach_1s = 0;
  1095  03FE  1051               	bcf	(_Flag),0
  1096                           	line	147
  1097                           	
  1098  03FF                     l4173:	
  1099                           ;master.c: 147: INTCON = 0xc0;
  1100  03FF  30C0               	movlw	(0C0h)
  1101  0400  008B               	movwf	(11)	;volatile
  1102  0401  2C02               	goto	l4175
  1103                           	line	148
  1104                           ;master.c: 148: while(1)
  1105                           	
  1106  0402                     l847:	
  1107                           	line	150
  1108                           	
  1109  0402                     l4175:	
  1110                           ;master.c: 149: {
  1111                           ;master.c: 150: if(!Flag.is_tx)
  1112  0402  1283               	bcf	status, 5	;RP0=0, select bank0
  1113  0403  1303               	bcf	status, 6	;RP1=0, select bank0
  1114  0404  18D1               	btfsc	(_Flag),1
  1115  0405  2C07               	goto	u2851
  1116  0406  2C08               	goto	u2850
  1117  0407                     u2851:
  1118  0407  2C02               	goto	l4175
  1119  0408                     u2850:
  1120                           	line	152
  1121                           	
  1122  0408                     l4177:	
  1123                           ;master.c: 151: {
  1124                           ;master.c: 152: if(!RC0)
  1125  0408  1807               	btfsc	(56/8),(56)&7
  1126  0409  2C0B               	goto	u2861
  1127  040A  2C0C               	goto	u2860
  1128  040B                     u2861:
  1129  040B  2C02               	goto	l4175
  1130  040C                     u2860:
  1131                           	line	154
  1132                           	
  1133  040C                     l4179:	
  1134                           ;master.c: 153: {
  1135                           ;master.c: 154: clr_interrupt();
  1136  040C  118A  264F  118A   	fcall	_clr_interrupt
  1137                           	line	156
  1138                           	
  1139  040F                     l4181:	
  1140                           ;master.c: 156: if((spi_read_buf[4] &0x08) == 0)
  1141  040F  1283               	bcf	status, 5	;RP0=0, select bank0
  1142  0410  1303               	bcf	status, 6	;RP1=0, select bank0
  1143  0411  19BD               	btfsc	0+(_spi_read_buf)+04h,(3)&7
  1144  0412  2C14               	goto	u2871
  1145  0413  2C15               	goto	u2870
  1146  0414                     u2871:
  1147  0414  2C5B               	goto	l4213
  1148  0415                     u2870:
  1149                           	line	158
  1150                           	
  1151  0415                     l4183:	
  1152                           ;master.c: 157: {
  1153                           ;master.c: 158: spi_read_fifo();
  1154  0415  118A  24FE  118A   	fcall	_spi_read_fifo
  1155                           	line	159
  1156                           	
  1157  0418                     l4185:	
  1158                           ;master.c: 159: fifo_reset();
  1159  0418  118A  26B6  118A   	fcall	_fifo_reset
  1160                           	line	161
  1161                           	
  1162  041B                     l4187:	
  1163                           ;master.c: 161: chksum = 0;
  1164  041B  1283               	bcf	status, 5	;RP0=0, select bank0
  1165  041C  1303               	bcf	status, 6	;RP1=0, select bank0
  1166  041D  01ED               	clrf	(main@chksum)
  1167                           	line	162
  1168                           	
  1169  041E                     l4189:	
  1170                           ;master.c: 162: for(i=4;i<14-1;i++)
  1171  041E  3004               	movlw	(04h)
  1172  041F  00EC               	movwf	(??_main+0)+0
  1173  0420  086C               	movf	(??_main+0)+0,w
  1174  0421  00EE               	movwf	(main@i)
  1175                           	
  1176  0422                     l4191:	
  1177  0422  300D               	movlw	(0Dh)
  1178  0423  026E               	subwf	(main@i),w
  1179  0424  1C03               	skipc
  1180  0425  2C27               	goto	u2881
  1181  0426  2C28               	goto	u2880
  1182  0427                     u2881:
  1183  0427  2C2A               	goto	l4195
  1184  0428                     u2880:
  1185  0428  2C3D               	goto	l4201
  1186                           	
  1187  0429                     l4193:	
  1188  0429  2C3D               	goto	l4201
  1189                           	line	163
  1190                           	
  1191  042A                     l851:	
  1192                           	
  1193  042A                     l4195:	
  1194                           ;master.c: 163: chksum += rx_buf[i];
  1195  042A  086E               	movf	(main@i),w
  1196  042B  3E20               	addlw	_rx_buf&0ffh
  1197  042C  0084               	movwf	fsr0
  1198  042D  1383               	bcf	status, 7	;select IRP bank0
  1199  042E  0800               	movf	indf,w
  1200  042F  00EC               	movwf	(??_main+0)+0
  1201  0430  086C               	movf	(??_main+0)+0,w
  1202  0431  07ED               	addwf	(main@chksum),f
  1203                           	line	162
  1204                           	
  1205  0432                     l4197:	
  1206  0432  3001               	movlw	(01h)
  1207  0433  00EC               	movwf	(??_main+0)+0
  1208  0434  086C               	movf	(??_main+0)+0,w
  1209  0435  07EE               	addwf	(main@i),f
  1210                           	
  1211  0436                     l4199:	
  1212  0436  300D               	movlw	(0Dh)
  1213  0437  026E               	subwf	(main@i),w
  1214  0438  1C03               	skipc
  1215  0439  2C3B               	goto	u2891
  1216  043A  2C3C               	goto	u2890
  1217  043B                     u2891:
  1218  043B  2C2A               	goto	l4195
  1219  043C                     u2890:
  1220  043C  2C3D               	goto	l4201
  1221                           	
  1222  043D                     l852:	
  1223                           	line	165
  1224                           	
  1225  043D                     l4201:	
  1226                           ;master.c: 165: if(( chksum == rx_buf[14-1] )&&( rx_buf[4] == 0x41 ))
  1227  043D  082D               	movf	0+(_rx_buf)+0Dh,w
  1228  043E  066D               	xorwf	(main@chksum),w
  1229  043F  1D03               	skipz
  1230  0440  2C42               	goto	u2901
  1231  0441  2C43               	goto	u2900
  1232  0442                     u2901:
  1233  0442  2C56               	goto	l4211
  1234  0443                     u2900:
  1235                           	
  1236  0443                     l4203:	
  1237  0443  0824               	movf	0+(_rx_buf)+04h,w
  1238  0444  3A41               	xorlw	041h
  1239  0445  1D03               	skipz
  1240  0446  2C48               	goto	u2911
  1241  0447  2C49               	goto	u2910
  1242  0448                     u2911:
  1243  0448  2C56               	goto	l4211
  1244  0449                     u2910:
  1245                           	line	167
  1246                           	
  1247  0449                     l4205:	
  1248                           ;master.c: 166: {
  1249                           ;master.c: 167: RC6 ^= 1;
  1250  0449  3040               	movlw	1<<((62)&7)
  1251  044A  0687               	xorwf	((62)/8),f
  1252                           	line	168
  1253                           	
  1254  044B                     l4207:	
  1255                           ;master.c: 168: delay_1ms(100);
  1256  044B  3064               	movlw	low(064h)
  1257  044C  00F4               	movwf	(?_delay_1ms)
  1258  044D  3000               	movlw	high(064h)
  1259  044E  00F5               	movwf	((?_delay_1ms))+1
  1260  044F  118A  25DE  118A   	fcall	_delay_1ms
  1261                           	line	170
  1262                           	
  1263  0452                     l4209:	
  1264                           ;master.c: 170: rx_init();
  1265  0452  118A  26C9  118A   	fcall	_rx_init
  1266                           	line	171
  1267                           ;master.c: 171: }
  1268  0455  2C02               	goto	l4175
  1269                           	line	172
  1270                           	
  1271  0456                     l853:	
  1272                           	line	173
  1273                           	
  1274  0456                     l4211:	
  1275                           ;master.c: 172: else
  1276                           ;master.c: 173: rx_init();
  1277  0456  118A  26C9  118A   	fcall	_rx_init
  1278  0459  2C02               	goto	l4175
  1279                           	
  1280  045A                     l854:	
  1281                           	line	174
  1282                           ;master.c: 174: }
  1283  045A  2C02               	goto	l4175
  1284                           	line	175
  1285                           	
  1286  045B                     l850:	
  1287                           	line	177
  1288                           	
  1289  045B                     l4213:	
  1290                           ;master.c: 175: else
  1291                           ;master.c: 176: {
  1292                           ;master.c: 177: rx_init();
  1293  045B  118A  26C9  118A   	fcall	_rx_init
  1294  045E  2C02               	goto	l4175
  1295                           	line	178
  1296                           	
  1297  045F                     l855:	
  1298  045F  2C02               	goto	l4175
  1299                           	line	179
  1300                           	
  1301  0460                     l849:	
  1302  0460  2C02               	goto	l4175
  1303                           	line	180
  1304                           	
  1305  0461                     l848:	
  1306  0461  2C02               	goto	l4175
  1307                           	line	181
  1308                           	
  1309  0462                     l856:	
  1310                           	line	148
  1311  0462  2C02               	goto	l4175
  1312                           	
  1313  0463                     l857:	
  1314                           	line	182
  1315                           	
  1316  0463                     l858:	
  1317                           	global	start
  1318  0463  118A  2811         	ljmp	start
  1319                           	opt stack 0
  1320                           GLOBAL	__end_of_main
  1321  0465                     	__end_of_main:
  1322 ;; =============== function _main ends ============
  1323                           
  1324                           	signat	_main,88
  1325                           	global	_rx_init
  1326                           psect	text475,local,class=CODE,delta=2
  1327                           global __ptext475
  1328  06C9                     __ptext475:
  1329                           
  1330 ;; *************** function _rx_init *****************
  1331 ;; Defined at:
  1332 ;;		line 449 in file "C:\Users\Crow\Desktop\si4463_Vc2\SLAVE_MOD\master.c"
  1333 ;; Parameters:    Size  Location     Type
  1334 ;;		None
  1335 ;; Auto vars:     Size  Location     Type
  1336 ;;		None
  1337 ;; Return value:  Size  Location     Type
  1338 ;;		None               void
  1339 ;; Registers used:
  1340 ;;		wreg, fsr0l, fsr0h, status,2, status,0, btemp+1, pclath, cstack
  1341 ;; Tracked objects:
  1342 ;;		On entry : 0/0
  1343 ;;		On exit  : 0/0
  1344 ;;		Unchanged: 0/0
  1345 ;; Data sizes:     COMMON   BANK0   BANK1   BANK2
  1346 ;;      Params:         0       0       0       0
  1347 ;;      Locals:         0       0       0       0
  1348 ;;      Temps:          0       0       0       0
  1349 ;;      Totals:         0       0       0       0
  1350 ;;Total ram usage:        0 bytes
  1351 ;; Hardware stack levels used:    1
  1352 ;; Hardware stack levels required when called:    6
  1353 ;; This function calls:
  1354 ;;		_fifo_reset
  1355 ;;		_enable_rx_interrupt
  1356 ;;		_clr_interrupt
  1357 ;;		_rx_start
  1358 ;; This function is called by:
  1359 ;;		_main
  1360 ;; This function uses a non-reentrant model
  1361 ;;
  1362                           psect	text475
  1363                           	file	"C:\Users\Crow\Desktop\si4463_Vc2\SLAVE_MOD\master.c"
  1364                           	line	449
  1365                           	global	__size_of_rx_init
  1366  0010                     	__size_of_rx_init	equ	__end_of_rx_init-_rx_init
  1367                           	
  1368  06C9                     _rx_init:	
  1369                           	opt	stack 1
  1370                           ; Regs used in _rx_init: [wreg-fsr0h+status,2+status,0+btemp+1+pclath+cstack]
  1371                           	line	450
  1372                           	
  1373  06C9                     l4141:	
  1374                           ;master.c: 450: Flag.is_tx = 0;
  1375  06C9  1283               	bcf	status, 5	;RP0=0, select bank0
  1376  06CA  1303               	bcf	status, 6	;RP1=0, select bank0
  1377  06CB  10D1               	bcf	(_Flag),1
  1378                           	line	451
  1379                           	
  1380  06CC                     l4143:	
  1381                           ;master.c: 451: fifo_reset();
  1382  06CC  118A  26B6  118A   	fcall	_fifo_reset
  1383                           	line	452
  1384                           ;master.c: 452: enable_rx_interrupt();
  1385  06CF  118A  262F  118A   	fcall	_enable_rx_interrupt
  1386                           	line	453
  1387                           ;master.c: 453: clr_interrupt();
  1388  06D2  118A  264F  118A   	fcall	_clr_interrupt
  1389                           	line	454
  1390                           ;master.c: 454: rx_start();
  1391  06D5  118A  266B  118A   	fcall	_rx_start
  1392                           	line	455
  1393                           	
  1394  06D8                     l885:	
  1395  06D8  0008               	return
  1396                           	opt stack 0
  1397                           GLOBAL	__end_of_rx_init
  1398  06D9                     	__end_of_rx_init:
  1399 ;; =============== function _rx_init ends ============
  1400                           
  1401                           	signat	_rx_init,88
  1402                           	global	_clr_interrupt
  1403                           psect	text476,local,class=CODE,delta=2
  1404                           global __ptext476
  1405  064F                     __ptext476:
  1406                           
  1407 ;; *************** function _clr_interrupt *****************
  1408 ;; Defined at:
  1409 ;;		line 374 in file "C:\Users\Crow\Desktop\si4463_Vc2\SLAVE_MOD\master.c"
  1410 ;; Parameters:    Size  Location     Type
  1411 ;;		None
  1412 ;; Auto vars:     Size  Location     Type
  1413 ;;  p               4   11[BANK0 ] unsigned char [4]
  1414 ;; Return value:  Size  Location     Type
  1415 ;;		None               void
  1416 ;; Registers used:
  1417 ;;		wreg, fsr0l, fsr0h, status,2, status,0, btemp+1, pclath, cstack
  1418 ;; Tracked objects:
  1419 ;;		On entry : 0/0
  1420 ;;		On exit  : 0/0
  1421 ;;		Unchanged: 0/0
  1422 ;; Data sizes:     COMMON   BANK0   BANK1   BANK2
  1423 ;;      Params:         0       0       0       0
  1424 ;;      Locals:         0       4       0       0
  1425 ;;      Temps:          0       1       0       0
  1426 ;;      Totals:         0       5       0       0
  1427 ;;Total ram usage:        5 bytes
  1428 ;; Hardware stack levels used:    1
  1429 ;; Hardware stack levels required when called:    5
  1430 ;; This function calls:
  1431 ;;		_spi_write
  1432 ;;		_spi_read
  1433 ;; This function is called by:
  1434 ;;		_main
  1435 ;;		_rx_init
  1436 ;;		_tx_data
  1437 ;; This function uses a non-reentrant model
  1438 ;;
  1439                           psect	text476
  1440                           	file	"C:\Users\Crow\Desktop\si4463_Vc2\SLAVE_MOD\master.c"
  1441                           	line	374
  1442                           	global	__size_of_clr_interrupt
  1443  001C                     	__size_of_clr_interrupt	equ	__end_of_clr_interrupt-_clr_interrupt
  1444                           	
  1445  064F                     _clr_interrupt:	
  1446                           	opt	stack 2
  1447                           ; Regs used in _clr_interrupt: [wreg-fsr0h+status,2+status,0+btemp+1+pclath+cstack]
  1448                           	line	377
  1449                           	
  1450  064F                     l4129:	
  1451                           ;master.c: 375: U8 p[4];
  1452                           ;master.c: 377: p[0] = 0x20;
  1453  064F  3020               	movlw	(020h)
  1454  0650  1283               	bcf	status, 5	;RP0=0, select bank0
  1455  0651  1303               	bcf	status, 6	;RP1=0, select bank0
  1456  0652  00DC               	movwf	(??_clr_interrupt+0)+0
  1457  0653  085C               	movf	(??_clr_interrupt+0)+0,w
  1458  0654  00DD               	movwf	(clr_interrupt@p)
  1459                           	line	378
  1460                           	
  1461  0655                     l4131:	
  1462                           ;master.c: 378: p[1] = 0;
  1463  0655  01DE               	clrf	0+(clr_interrupt@p)+01h
  1464                           	line	379
  1465                           	
  1466  0656                     l4133:	
  1467                           ;master.c: 379: p[2] = 0;
  1468  0656  01DF               	clrf	0+(clr_interrupt@p)+02h
  1469                           	line	380
  1470                           	
  1471  0657                     l4135:	
  1472                           ;master.c: 380: p[3] = 0;
  1473  0657  01E0               	clrf	0+(clr_interrupt@p)+03h
  1474                           	line	381
  1475                           	
  1476  0658                     l4137:	
  1477                           ;master.c: 381: spi_write(4,p);
  1478  0658  305D               	movlw	(clr_interrupt@p&0ffh)
  1479  0659  00D2               	movwf	(?_spi_write)
  1480  065A  3000               	movlw	(0x0/2)
  1481  065B  00D3               	movwf	(?_spi_write+1)
  1482  065C  3004               	movlw	(04h)
  1483  065D  118A  253C  118A   	fcall	_spi_write
  1484                           	line	382
  1485                           	
  1486  0660                     l4139:	
  1487                           ;master.c: 382: spi_read(9,0x20);
  1488  0660  3020               	movlw	(020h)
  1489  0661  1283               	bcf	status, 5	;RP0=0, select bank0
  1490  0662  1303               	bcf	status, 6	;RP1=0, select bank0
  1491  0663  00DC               	movwf	(??_clr_interrupt+0)+0
  1492  0664  085C               	movf	(??_clr_interrupt+0)+0,w
  1493  0665  00D7               	movwf	(?_spi_read)
  1494  0666  3009               	movlw	(09h)
  1495  0667  118A  2465  118A   	fcall	_spi_read
  1496                           	line	383
  1497                           	
  1498  066A                     l867:	
  1499  066A  0008               	return
  1500                           	opt stack 0
  1501                           GLOBAL	__end_of_clr_interrupt
  1502  066B                     	__end_of_clr_interrupt:
  1503 ;; =============== function _clr_interrupt ends ============
  1504                           
  1505                           	signat	_clr_interrupt,88
  1506                           	global	_rx_start
  1507                           psect	text477,local,class=CODE,delta=2
  1508                           global __ptext477
  1509  066B                     __ptext477:
  1510                           
  1511 ;; *************** function _rx_start *****************
  1512 ;; Defined at:
  1513 ;;		line 434 in file "C:\Users\Crow\Desktop\si4463_Vc2\SLAVE_MOD\master.c"
  1514 ;; Parameters:    Size  Location     Type
  1515 ;;		None
  1516 ;; Auto vars:     Size  Location     Type
  1517 ;;  p               8    6[BANK0 ] unsigned char [8]
  1518 ;; Return value:  Size  Location     Type
  1519 ;;		None               void
  1520 ;; Registers used:
  1521 ;;		wreg, fsr0l, fsr0h, status,2, status,0, btemp+1, pclath, cstack
  1522 ;; Tracked objects:
  1523 ;;		On entry : 0/0
  1524 ;;		On exit  : 0/0
  1525 ;;		Unchanged: 0/0
  1526 ;; Data sizes:     COMMON   BANK0   BANK1   BANK2
  1527 ;;      Params:         0       0       0       0
  1528 ;;      Locals:         0       8       0       0
  1529 ;;      Temps:          0       1       0       0
  1530 ;;      Totals:         0       9       0       0
  1531 ;;Total ram usage:        9 bytes
  1532 ;; Hardware stack levels used:    1
  1533 ;; Hardware stack levels required when called:    4
  1534 ;; This function calls:
  1535 ;;		_spi_write
  1536 ;; This function is called by:
  1537 ;;		_rx_init
  1538 ;; This function uses a non-reentrant model
  1539 ;;
  1540                           psect	text477
  1541                           	file	"C:\Users\Crow\Desktop\si4463_Vc2\SLAVE_MOD\master.c"
  1542                           	line	434
  1543                           	global	__size_of_rx_start
  1544  001C                     	__size_of_rx_start	equ	__end_of_rx_start-_rx_start
  1545                           	
  1546  066B                     _rx_start:	
  1547                           	opt	stack 2
  1548                           ; Regs used in _rx_start: [wreg-fsr0h+status,2+status,0+btemp+1+pclath+cstack]
  1549                           	line	437
  1550                           	
  1551  066B                     l4115:	
  1552                           ;master.c: 435: U8 p[8];
  1553                           ;master.c: 437: p[0] = 0x32 ;
  1554  066B  3032               	movlw	(032h)
  1555  066C  1283               	bcf	status, 5	;RP0=0, select bank0
  1556  066D  1303               	bcf	status, 6	;RP1=0, select bank0
  1557  066E  00D7               	movwf	(??_rx_start+0)+0
  1558  066F  0857               	movf	(??_rx_start+0)+0,w
  1559  0670  00D8               	movwf	(rx_start@p)
  1560                           	line	438
  1561                           	
  1562  0671                     l4117:	
  1563                           ;master.c: 438: p[1] = 0 ;
  1564  0671  01D9               	clrf	0+(rx_start@p)+01h
  1565                           	line	439
  1566                           	
  1567  0672                     l4119:	
  1568                           ;master.c: 439: p[2] = 0x00;
  1569  0672  01DA               	clrf	0+(rx_start@p)+02h
  1570                           	line	440
  1571                           	
  1572  0673                     l4121:	
  1573                           ;master.c: 440: p[3] = 0;
  1574  0673  01DB               	clrf	0+(rx_start@p)+03h
  1575                           	line	441
  1576                           	
  1577  0674                     l4123:	
  1578                           ;master.c: 441: p[4] = 0;
  1579  0674  01DC               	clrf	0+(rx_start@p)+04h
  1580                           	line	442
  1581                           	
  1582  0675                     l4125:	
  1583                           ;master.c: 442: p[5] = 0;
  1584  0675  01DD               	clrf	0+(rx_start@p)+05h
  1585                           	line	443
  1586                           ;master.c: 443: p[6] = 0x08;
  1587  0676  3008               	movlw	(08h)
  1588  0677  00D7               	movwf	(??_rx_start+0)+0
  1589  0678  0857               	movf	(??_rx_start+0)+0,w
  1590  0679  00DE               	movwf	0+(rx_start@p)+06h
  1591                           	line	444
  1592                           ;master.c: 444: p[7] = 0x08;
  1593  067A  3008               	movlw	(08h)
  1594  067B  00D7               	movwf	(??_rx_start+0)+0
  1595  067C  0857               	movf	(??_rx_start+0)+0,w
  1596  067D  00DF               	movwf	0+(rx_start@p)+07h
  1597                           	line	445
  1598                           	
  1599  067E                     l4127:	
  1600                           ;master.c: 445: spi_write(8, p);
  1601  067E  3058               	movlw	(rx_start@p&0ffh)
  1602  067F  00D2               	movwf	(?_spi_write)
  1603  0680  3000               	movlw	(0x0/2)
  1604  0681  00D3               	movwf	(?_spi_write+1)
  1605  0682  3008               	movlw	(08h)
  1606  0683  118A  253C  118A   	fcall	_spi_write
  1607                           	line	446
  1608                           	
  1609  0686                     l882:	
  1610  0686  0008               	return
  1611                           	opt stack 0
  1612                           GLOBAL	__end_of_rx_start
  1613  0687                     	__end_of_rx_start:
  1614 ;; =============== function _rx_start ends ============
  1615                           
  1616                           	signat	_rx_start,88
  1617                           	global	_enable_rx_interrupt
  1618                           psect	text478,local,class=CODE,delta=2
  1619                           global __ptext478
  1620  062F                     __ptext478:
  1621                           
  1622 ;; *************** function _enable_rx_interrupt *****************
  1623 ;; Defined at:
  1624 ;;		line 386 in file "C:\Users\Crow\Desktop\si4463_Vc2\SLAVE_MOD\master.c"
  1625 ;; Parameters:    Size  Location     Type
  1626 ;;		None
  1627 ;; Auto vars:     Size  Location     Type
  1628 ;;  p               7    6[BANK0 ] unsigned char [7]
  1629 ;; Return value:  Size  Location     Type
  1630 ;;		None               void
  1631 ;; Registers used:
  1632 ;;		wreg, fsr0l, fsr0h, status,2, status,0, btemp+1, pclath, cstack
  1633 ;; Tracked objects:
  1634 ;;		On entry : 0/0
  1635 ;;		On exit  : 0/0
  1636 ;;		Unchanged: 0/0
  1637 ;; Data sizes:     COMMON   BANK0   BANK1   BANK2
  1638 ;;      Params:         0       0       0       0
  1639 ;;      Locals:         0       7       0       0
  1640 ;;      Temps:          0       1       0       0
  1641 ;;      Totals:         0       8       0       0
  1642 ;;Total ram usage:        8 bytes
  1643 ;; Hardware stack levels used:    1
  1644 ;; Hardware stack levels required when called:    4
  1645 ;; This function calls:
  1646 ;;		_spi_write
  1647 ;; This function is called by:
  1648 ;;		_rx_init
  1649 ;; This function uses a non-reentrant model
  1650 ;;
  1651                           psect	text478
  1652                           	file	"C:\Users\Crow\Desktop\si4463_Vc2\SLAVE_MOD\master.c"
  1653                           	line	386
  1654                           	global	__size_of_enable_rx_interrupt
  1655  0020                     	__size_of_enable_rx_interrupt	equ	__end_of_enable_rx_interrupt-_enable_rx_interrupt
  1656                           	
  1657  062F                     _enable_rx_interrupt:	
  1658                           	opt	stack 2
  1659                           ; Regs used in _enable_rx_interrupt: [wreg-fsr0h+status,2+status,0+btemp+1+pclath+cstack
                                 ]
  1660                           	line	389
  1661                           	
  1662  062F                     l4099:	
  1663                           ;master.c: 387: U8 p[7];
  1664                           ;master.c: 389: p[0] = 0x11;
  1665  062F  3011               	movlw	(011h)
  1666  0630  1283               	bcf	status, 5	;RP0=0, select bank0
  1667  0631  1303               	bcf	status, 6	;RP1=0, select bank0
  1668  0632  00D7               	movwf	(??_enable_rx_interrupt+0)+0
  1669  0633  0857               	movf	(??_enable_rx_interrupt+0)+0,w
  1670  0634  00D8               	movwf	(enable_rx_interrupt@p)
  1671                           	line	390
  1672                           	
  1673  0635                     l4101:	
  1674                           ;master.c: 390: p[1] = 0x01;
  1675  0635  01D9               	clrf	0+(enable_rx_interrupt@p)+01h
  1676  0636  1403               	bsf	status,0
  1677  0637  0DD9               	rlf	0+(enable_rx_interrupt@p)+01h,f
  1678                           	line	391
  1679                           	
  1680  0638                     l4103:	
  1681                           ;master.c: 391: p[2] = 0x03;
  1682  0638  3003               	movlw	(03h)
  1683  0639  00D7               	movwf	(??_enable_rx_interrupt+0)+0
  1684  063A  0857               	movf	(??_enable_rx_interrupt+0)+0,w
  1685  063B  00DA               	movwf	0+(enable_rx_interrupt@p)+02h
  1686                           	line	392
  1687                           	
  1688  063C                     l4105:	
  1689                           ;master.c: 392: p[3] = 0x00;
  1690  063C  01DB               	clrf	0+(enable_rx_interrupt@p)+03h
  1691                           	line	393
  1692                           	
  1693  063D                     l4107:	
  1694                           ;master.c: 393: p[4] = 0x03;
  1695  063D  3003               	movlw	(03h)
  1696  063E  00D7               	movwf	(??_enable_rx_interrupt+0)+0
  1697  063F  0857               	movf	(??_enable_rx_interrupt+0)+0,w
  1698  0640  00DC               	movwf	0+(enable_rx_interrupt@p)+04h
  1699                           	line	394
  1700                           	
  1701  0641                     l4109:	
  1702                           ;master.c: 394: p[5] = 0x18;
  1703  0641  3018               	movlw	(018h)
  1704  0642  00D7               	movwf	(??_enable_rx_interrupt+0)+0
  1705  0643  0857               	movf	(??_enable_rx_interrupt+0)+0,w
  1706  0644  00DD               	movwf	0+(enable_rx_interrupt@p)+05h
  1707                           	line	395
  1708                           	
  1709  0645                     l4111:	
  1710                           ;master.c: 395: p[6] = 0x00;
  1711  0645  01DE               	clrf	0+(enable_rx_interrupt@p)+06h
  1712                           	line	396
  1713                           	
  1714  0646                     l4113:	
  1715                           ;master.c: 396: spi_write(0x07, p);
  1716  0646  3058               	movlw	(enable_rx_interrupt@p&0ffh)
  1717  0647  00D2               	movwf	(?_spi_write)
  1718  0648  3000               	movlw	(0x0/2)
  1719  0649  00D3               	movwf	(?_spi_write+1)
  1720  064A  3007               	movlw	(07h)
  1721  064B  118A  253C  118A   	fcall	_spi_write
  1722                           	line	397
  1723                           	
  1724  064E                     l870:	
  1725  064E  0008               	return
  1726                           	opt stack 0
  1727                           GLOBAL	__end_of_enable_rx_interrupt
  1728  064F                     	__end_of_enable_rx_interrupt:
  1729 ;; =============== function _enable_rx_interrupt ends ============
  1730                           
  1731                           	signat	_enable_rx_interrupt,88
  1732                           	global	_spi_read
  1733                           psect	text479,local,class=CODE,delta=2
  1734                           global __ptext479
  1735  0465                     __ptext479:
  1736                           
  1737 ;; *************** function _spi_read *****************
  1738 ;; Defined at:
  1739 ;;		line 539 in file "C:\Users\Crow\Desktop\si4463_Vc2\SLAVE_MOD\master.c"
  1740 ;; Parameters:    Size  Location     Type
  1741 ;;  data_length     1    wreg     unsigned char 
  1742 ;;  api_command     1    5[BANK0 ] unsigned char 
  1743 ;; Auto vars:     Size  Location     Type
  1744 ;;  data_length     1    7[BANK0 ] unsigned char 
  1745 ;;  i               1    9[BANK0 ] unsigned char 
  1746 ;;  p               1    8[BANK0 ] unsigned char [1]
  1747 ;; Return value:  Size  Location     Type
  1748 ;;		None               void
  1749 ;; Registers used:
  1750 ;;		wreg, fsr0l, fsr0h, status,2, status,0, btemp+1, pclath, cstack
  1751 ;; Tracked objects:
  1752 ;;		On entry : 0/0
  1753 ;;		On exit  : 0/0
  1754 ;;		Unchanged: 0/0
  1755 ;; Data sizes:     COMMON   BANK0   BANK1   BANK2
  1756 ;;      Params:         0       1       0       0
  1757 ;;      Locals:         0       3       0       0
  1758 ;;      Temps:          0       1       0       0
  1759 ;;      Totals:         0       5       0       0
  1760 ;;Total ram usage:        5 bytes
  1761 ;; Hardware stack levels used:    1
  1762 ;; Hardware stack levels required when called:    4
  1763 ;; This function calls:
  1764 ;;		_check_cts
  1765 ;;		_spi_write
  1766 ;;		_spi_byte
  1767 ;; This function is called by:
  1768 ;;		_clr_interrupt
  1769 ;; This function uses a non-reentrant model
  1770 ;;
  1771                           psect	text479
  1772                           	file	"C:\Users\Crow\Desktop\si4463_Vc2\SLAVE_MOD\master.c"
  1773                           	line	539
  1774                           	global	__size_of_spi_read
  1775  0059                     	__size_of_spi_read	equ	__end_of_spi_read-_spi_read
  1776                           	
  1777  0465                     _spi_read:	
  1778                           	opt	stack 2
  1779                           ; Regs used in _spi_read: [wreg-fsr0h+status,2+status,0+btemp+1+pclath+cstack]
  1780                           ;spi_read@data_length stored from wreg
  1781                           	line	543
  1782  0465  1283               	bcf	status, 5	;RP0=0, select bank0
  1783  0466  1303               	bcf	status, 6	;RP1=0, select bank0
  1784  0467  00D9               	movwf	(spi_read@data_length)
  1785                           	
  1786  0468                     l4073:	
  1787                           ;master.c: 540: U8 i;
  1788                           ;master.c: 542: U8 p[1];
  1789                           ;master.c: 543: p[0] = api_command;
  1790  0468  0857               	movf	(spi_read@api_command),w
  1791  0469  00D8               	movwf	(??_spi_read+0)+0
  1792  046A  0858               	movf	(??_spi_read+0)+0,w
  1793  046B  00DA               	movwf	(spi_read@p)
  1794                           	line	544
  1795                           	
  1796  046C                     l4075:	
  1797                           ;master.c: 544: i = 0;
  1798  046C  01DB               	clrf	(spi_read@i)
  1799                           	line	545
  1800                           ;master.c: 545: while(i!=0xff)
  1801  046D  2C77               	goto	l4079
  1802                           	
  1803  046E                     l917:	
  1804                           	line	546
  1805                           	
  1806  046E                     l4077:	
  1807                           ;master.c: 546: i = check_cts();
  1808  046E  118A  26A0  118A   	fcall	_check_cts
  1809  0471  1283               	bcf	status, 5	;RP0=0, select bank0
  1810  0472  1303               	bcf	status, 6	;RP1=0, select bank0
  1811  0473  00D8               	movwf	(??_spi_read+0)+0
  1812  0474  0858               	movf	(??_spi_read+0)+0,w
  1813  0475  00DB               	movwf	(spi_read@i)
  1814  0476  2C77               	goto	l4079
  1815                           	
  1816  0477                     l916:	
  1817                           	line	545
  1818                           	
  1819  0477                     l4079:	
  1820  0477  085B               	movf	(spi_read@i),w
  1821  0478  3AFF               	xorlw	0FFh
  1822  0479  1D03               	skipz
  1823  047A  2C7C               	goto	u2821
  1824  047B  2C7D               	goto	u2820
  1825  047C                     u2821:
  1826  047C  2C6E               	goto	l4077
  1827  047D                     u2820:
  1828  047D  2C7E               	goto	l4081
  1829                           	
  1830  047E                     l918:	
  1831                           	line	548
  1832                           	
  1833  047E                     l4081:	
  1834                           ;master.c: 548: spi_write(1, p);
  1835  047E  305A               	movlw	(spi_read@p&0ffh)
  1836  047F  00D2               	movwf	(?_spi_write)
  1837  0480  3000               	movlw	(0x0/2)
  1838  0481  00D3               	movwf	(?_spi_write+1)
  1839  0482  3001               	movlw	(01h)
  1840  0483  118A  253C  118A   	fcall	_spi_write
  1841                           	line	550
  1842                           	
  1843  0486                     l4083:	
  1844                           ;master.c: 550: i = 0;
  1845  0486  1283               	bcf	status, 5	;RP0=0, select bank0
  1846  0487  1303               	bcf	status, 6	;RP1=0, select bank0
  1847  0488  01DB               	clrf	(spi_read@i)
  1848                           	line	551
  1849                           ;master.c: 551: while(i!=0xff)
  1850  0489  2C93               	goto	l4087
  1851                           	
  1852  048A                     l920:	
  1853                           	line	552
  1854                           	
  1855  048A                     l4085:	
  1856                           ;master.c: 552: i = check_cts();
  1857  048A  118A  26A0  118A   	fcall	_check_cts
  1858  048D  1283               	bcf	status, 5	;RP0=0, select bank0
  1859  048E  1303               	bcf	status, 6	;RP1=0, select bank0
  1860  048F  00D8               	movwf	(??_spi_read+0)+0
  1861  0490  0858               	movf	(??_spi_read+0)+0,w
  1862  0491  00DB               	movwf	(spi_read@i)
  1863  0492  2C93               	goto	l4087
  1864                           	
  1865  0493                     l919:	
  1866                           	line	551
  1867                           	
  1868  0493                     l4087:	
  1869  0493  085B               	movf	(spi_read@i),w
  1870  0494  3AFF               	xorlw	0FFh
  1871  0495  1D03               	skipz
  1872  0496  2C98               	goto	u2831
  1873  0497  2C99               	goto	u2830
  1874  0498                     u2831:
  1875  0498  2C8A               	goto	l4085
  1876  0499                     u2830:
  1877                           	
  1878  0499                     l921:	
  1879                           	line	554
  1880                           ;master.c: 554: RC2 = 1;
  1881  0499  1507               	bsf	(58/8),(58)&7
  1882                           	line	555
  1883                           ;master.c: 555: RC7 = 0;
  1884  049A  1387               	bcf	(63/8),(63)&7
  1885                           	line	556
  1886                           ;master.c: 556: RC2 = 0;
  1887  049B  1107               	bcf	(58/8),(58)&7
  1888                           	line	557
  1889                           	
  1890  049C                     l4089:	
  1891                           ;master.c: 557: spi_byte(0x44);
  1892  049C  3044               	movlw	(044h)
  1893  049D  118A  25AB  118A   	fcall	_spi_byte
  1894                           	line	558
  1895                           	
  1896  04A0                     l4091:	
  1897                           ;master.c: 558: for (i = 0; i< data_length; i++)
  1898  04A0  1283               	bcf	status, 5	;RP0=0, select bank0
  1899  04A1  1303               	bcf	status, 6	;RP1=0, select bank0
  1900  04A2  01DB               	clrf	(spi_read@i)
  1901  04A3  2CB6               	goto	l4097
  1902                           	line	559
  1903                           	
  1904  04A4                     l923:	
  1905                           	
  1906  04A4                     l4093:	
  1907                           ;master.c: 559: spi_read_buf[i] = spi_byte(0xff);
  1908  04A4  30FF               	movlw	(0FFh)
  1909  04A5  118A  25AB  118A   	fcall	_spi_byte
  1910  04A8  1283               	bcf	status, 5	;RP0=0, select bank0
  1911  04A9  1303               	bcf	status, 6	;RP1=0, select bank0
  1912  04AA  00D8               	movwf	(??_spi_read+0)+0
  1913  04AB  085B               	movf	(spi_read@i),w
  1914  04AC  3E39               	addlw	_spi_read_buf&0ffh
  1915  04AD  0084               	movwf	fsr0
  1916  04AE  0858               	movf	(??_spi_read+0)+0,w
  1917  04AF  1383               	bcf	status, 7	;select IRP bank0
  1918  04B0  0080               	movwf	indf
  1919                           	line	558
  1920                           	
  1921  04B1                     l4095:	
  1922  04B1  3001               	movlw	(01h)
  1923  04B2  00D8               	movwf	(??_spi_read+0)+0
  1924  04B3  0858               	movf	(??_spi_read+0)+0,w
  1925  04B4  07DB               	addwf	(spi_read@i),f
  1926  04B5  2CB6               	goto	l4097
  1927                           	
  1928  04B6                     l922:	
  1929                           	
  1930  04B6                     l4097:	
  1931  04B6  0859               	movf	(spi_read@data_length),w
  1932  04B7  025B               	subwf	(spi_read@i),w
  1933  04B8  1C03               	skipc
  1934  04B9  2CBB               	goto	u2841
  1935  04BA  2CBC               	goto	u2840
  1936  04BB                     u2841:
  1937  04BB  2CA4               	goto	l4093
  1938  04BC                     u2840:
  1939                           	
  1940  04BC                     l924:	
  1941                           	line	560
  1942                           ;master.c: 560: RC2 = 1;
  1943  04BC  1507               	bsf	(58/8),(58)&7
  1944                           	line	561
  1945                           	
  1946  04BD                     l925:	
  1947  04BD  0008               	return
  1948                           	opt stack 0
  1949                           GLOBAL	__end_of_spi_read
  1950  04BE                     	__end_of_spi_read:
  1951 ;; =============== function _spi_read ends ============
  1952                           
  1953                           	signat	_spi_read,8312
  1954                           	global	_fifo_reset
  1955                           psect	text480,local,class=CODE,delta=2
  1956                           global __ptext480
  1957  06B6                     __ptext480:
  1958                           
  1959 ;; *************** function _fifo_reset *****************
  1960 ;; Defined at:
  1961 ;;		line 365 in file "C:\Users\Crow\Desktop\si4463_Vc2\SLAVE_MOD\master.c"
  1962 ;; Parameters:    Size  Location     Type
  1963 ;;		None
  1964 ;; Auto vars:     Size  Location     Type
  1965 ;;  p               2    6[BANK0 ] unsigned char [2]
  1966 ;; Return value:  Size  Location     Type
  1967 ;;		None               void
  1968 ;; Registers used:
  1969 ;;		wreg, fsr0l, fsr0h, status,2, status,0, btemp+1, pclath, cstack
  1970 ;; Tracked objects:
  1971 ;;		On entry : 0/0
  1972 ;;		On exit  : 0/0
  1973 ;;		Unchanged: 0/0
  1974 ;; Data sizes:     COMMON   BANK0   BANK1   BANK2
  1975 ;;      Params:         0       0       0       0
  1976 ;;      Locals:         0       2       0       0
  1977 ;;      Temps:          0       1       0       0
  1978 ;;      Totals:         0       3       0       0
  1979 ;;Total ram usage:        3 bytes
  1980 ;; Hardware stack levels used:    1
  1981 ;; Hardware stack levels required when called:    4
  1982 ;; This function calls:
  1983 ;;		_spi_write
  1984 ;; This function is called by:
  1985 ;;		_main
  1986 ;;		_rx_init
  1987 ;;		_tx_data
  1988 ;; This function uses a non-reentrant model
  1989 ;;
  1990                           psect	text480
  1991                           	file	"C:\Users\Crow\Desktop\si4463_Vc2\SLAVE_MOD\master.c"
  1992                           	line	365
  1993                           	global	__size_of_fifo_reset
  1994  0013                     	__size_of_fifo_reset	equ	__end_of_fifo_reset-_fifo_reset
  1995                           	
  1996  06B6                     _fifo_reset:	
  1997                           	opt	stack 3
  1998                           ; Regs used in _fifo_reset: [wreg-fsr0h+status,2+status,0+btemp+1+pclath+cstack]
  1999                           	line	368
  2000                           	
  2001  06B6                     l4069:	
  2002                           ;master.c: 366: U8 p[2];
  2003                           ;master.c: 368: p[0] = 0x15;
  2004  06B6  3015               	movlw	(015h)
  2005  06B7  1283               	bcf	status, 5	;RP0=0, select bank0
  2006  06B8  1303               	bcf	status, 6	;RP1=0, select bank0
  2007  06B9  00D7               	movwf	(??_fifo_reset+0)+0
  2008  06BA  0857               	movf	(??_fifo_reset+0)+0,w
  2009  06BB  00D8               	movwf	(fifo_reset@p)
  2010                           	line	369
  2011                           ;master.c: 369: p[1] = 0x03;
  2012  06BC  3003               	movlw	(03h)
  2013  06BD  00D7               	movwf	(??_fifo_reset+0)+0
  2014  06BE  0857               	movf	(??_fifo_reset+0)+0,w
  2015  06BF  00D9               	movwf	0+(fifo_reset@p)+01h
  2016                           	line	370
  2017                           	
  2018  06C0                     l4071:	
  2019                           ;master.c: 370: spi_write(2,p);
  2020  06C0  3058               	movlw	(fifo_reset@p&0ffh)
  2021  06C1  00D2               	movwf	(?_spi_write)
  2022  06C2  3000               	movlw	(0x0/2)
  2023  06C3  00D3               	movwf	(?_spi_write+1)
  2024  06C4  3002               	movlw	(02h)
  2025  06C5  118A  253C  118A   	fcall	_spi_write
  2026                           	line	371
  2027                           	
  2028  06C8                     l864:	
  2029  06C8  0008               	return
  2030                           	opt stack 0
  2031                           GLOBAL	__end_of_fifo_reset
  2032  06C9                     	__end_of_fifo_reset:
  2033 ;; =============== function _fifo_reset ends ============
  2034                           
  2035                           	signat	_fifo_reset,88
  2036                           	global	_SI4463_init
  2037                           psect	text481,local,class=CODE,delta=2
  2038                           global __ptext481
  2039  0013                     __ptext481:
  2040                           
  2041 ;; *************** function _SI4463_init *****************
  2042 ;; Defined at:
  2043 ;;		line 185 in file "C:\Users\Crow\Desktop\si4463_Vc2\SLAVE_MOD\master.c"
  2044 ;; Parameters:    Size  Location     Type
  2045 ;;		None
  2046 ;; Auto vars:     Size  Location     Type
  2047 ;;  app_command_   20    6[BANK0 ] unsigned char [20]
  2048 ;; Return value:  Size  Location     Type
  2049 ;;		None               void
  2050 ;; Registers used:
  2051 ;;		wreg, fsr0l, fsr0h, status,2, status,0, btemp+1, pclath, cstack
  2052 ;; Tracked objects:
  2053 ;;		On entry : 0/0
  2054 ;;		On exit  : 0/0
  2055 ;;		Unchanged: 0/0
  2056 ;; Data sizes:     COMMON   BANK0   BANK1   BANK2
  2057 ;;      Params:         0       0       0       0
  2058 ;;      Locals:         0      20       0       0
  2059 ;;      Temps:          0       1       0       0
  2060 ;;      Totals:         0      21       0       0
  2061 ;;Total ram usage:       21 bytes
  2062 ;; Hardware stack levels used:    1
  2063 ;; Hardware stack levels required when called:    4
  2064 ;; This function calls:
  2065 ;;		_spi_write
  2066 ;; This function is called by:
  2067 ;;		_main
  2068 ;;		_tx_data
  2069 ;; This function uses a non-reentrant model
  2070 ;;
  2071                           psect	text481
  2072                           	file	"C:\Users\Crow\Desktop\si4463_Vc2\SLAVE_MOD\master.c"
  2073                           	line	185
  2074                           	global	__size_of_SI4463_init
  2075  0274                     	__size_of_SI4463_init	equ	__end_of_SI4463_init-_SI4463_init
  2076                           	
  2077  0013                     _SI4463_init:	
  2078                           	opt	stack 3
  2079                           ; Regs used in _SI4463_init: [wreg-fsr0h+status,2+status,0+btemp+1+pclath+cstack]
  2080                           	line	188
  2081                           	
  2082  0013                     l3819:	
  2083                           ;master.c: 186: U8 app_command_buf[20];
  2084                           ;master.c: 188: app_command_buf[0] = 0x13;
  2085  0013  3013               	movlw	(013h)
  2086  0014  1283               	bcf	status, 5	;RP0=0, select bank0
  2087  0015  1303               	bcf	status, 6	;RP1=0, select bank0
  2088  0016  00D7               	movwf	(??_SI4463_init+0)+0
  2089  0017  0857               	movf	(??_SI4463_init+0)+0,w
  2090  0018  00D8               	movwf	(SI4463_init@app_command_buf)
  2091                           	line	189
  2092                           ;master.c: 189: app_command_buf[1] = 0x14;
  2093  0019  3014               	movlw	(014h)
  2094  001A  00D7               	movwf	(??_SI4463_init+0)+0
  2095  001B  0857               	movf	(??_SI4463_init+0)+0,w
  2096  001C  00D9               	movwf	0+(SI4463_init@app_command_buf)+01h
  2097                           	line	190
  2098                           ;master.c: 190: app_command_buf[2] = 0x02;
  2099  001D  3002               	movlw	(02h)
  2100  001E  00D7               	movwf	(??_SI4463_init+0)+0
  2101  001F  0857               	movf	(??_SI4463_init+0)+0,w
  2102  0020  00DA               	movwf	0+(SI4463_init@app_command_buf)+02h
  2103                           	line	191
  2104                           ;master.c: 191: app_command_buf[3] = 0x21;
  2105  0021  3021               	movlw	(021h)
  2106  0022  00D7               	movwf	(??_SI4463_init+0)+0
  2107  0023  0857               	movf	(??_SI4463_init+0)+0,w
  2108  0024  00DB               	movwf	0+(SI4463_init@app_command_buf)+03h
  2109                           	line	192
  2110                           ;master.c: 192: app_command_buf[4] = 0x20;
  2111  0025  3020               	movlw	(020h)
  2112  0026  00D7               	movwf	(??_SI4463_init+0)+0
  2113  0027  0857               	movf	(??_SI4463_init+0)+0,w
  2114  0028  00DC               	movwf	0+(SI4463_init@app_command_buf)+04h
  2115                           	line	193
  2116                           ;master.c: 193: app_command_buf[5] = 0x27;
  2117  0029  3027               	movlw	(027h)
  2118  002A  00D7               	movwf	(??_SI4463_init+0)+0
  2119  002B  0857               	movf	(??_SI4463_init+0)+0,w
  2120  002C  00DD               	movwf	0+(SI4463_init@app_command_buf)+05h
  2121                           	line	194
  2122                           ;master.c: 194: app_command_buf[6] = 0x0b;
  2123  002D  300B               	movlw	(0Bh)
  2124  002E  00D7               	movwf	(??_SI4463_init+0)+0
  2125  002F  0857               	movf	(??_SI4463_init+0)+0,w
  2126  0030  00DE               	movwf	0+(SI4463_init@app_command_buf)+06h
  2127                           	line	195
  2128                           	
  2129  0031                     l3821:	
  2130                           ;master.c: 195: spi_write(7, app_command_buf);
  2131  0031  3058               	movlw	(SI4463_init@app_command_buf&0ffh)
  2132  0032  00D2               	movwf	(?_spi_write)
  2133  0033  3000               	movlw	(0x0/2)
  2134  0034  00D3               	movwf	(?_spi_write+1)
  2135  0035  3007               	movlw	(07h)
  2136  0036  118A  253C  118A   	fcall	_spi_write
  2137                           	line	198
  2138                           	
  2139  0039                     l3823:	
  2140                           ;master.c: 198: app_command_buf[0] = 0x11;
  2141  0039  3011               	movlw	(011h)
  2142  003A  1283               	bcf	status, 5	;RP0=0, select bank0
  2143  003B  1303               	bcf	status, 6	;RP1=0, select bank0
  2144  003C  00D7               	movwf	(??_SI4463_init+0)+0
  2145  003D  0857               	movf	(??_SI4463_init+0)+0,w
  2146  003E  00D8               	movwf	(SI4463_init@app_command_buf)
  2147                           	line	199
  2148                           	
  2149  003F                     l3825:	
  2150                           ;master.c: 199: app_command_buf[1] = 0x00;
  2151  003F  01D9               	clrf	0+(SI4463_init@app_command_buf)+01h
  2152                           	line	200
  2153                           	
  2154  0040                     l3827:	
  2155                           ;master.c: 200: app_command_buf[2] = 0x01;
  2156  0040  01DA               	clrf	0+(SI4463_init@app_command_buf)+02h
  2157  0041  1403               	bsf	status,0
  2158  0042  0DDA               	rlf	0+(SI4463_init@app_command_buf)+02h,f
  2159                           	line	201
  2160                           	
  2161  0043                     l3829:	
  2162                           ;master.c: 201: app_command_buf[3] = 0x00;
  2163  0043  01DB               	clrf	0+(SI4463_init@app_command_buf)+03h
  2164                           	line	202
  2165                           	
  2166  0044                     l3831:	
  2167                           ;master.c: 202: app_command_buf[4] = 98;
  2168  0044  3062               	movlw	(062h)
  2169  0045  00D7               	movwf	(??_SI4463_init+0)+0
  2170  0046  0857               	movf	(??_SI4463_init+0)+0,w
  2171  0047  00DC               	movwf	0+(SI4463_init@app_command_buf)+04h
  2172                           	line	203
  2173                           	
  2174  0048                     l3833:	
  2175                           ;master.c: 203: spi_write(5, app_command_buf);
  2176  0048  3058               	movlw	(SI4463_init@app_command_buf&0ffh)
  2177  0049  00D2               	movwf	(?_spi_write)
  2178  004A  3000               	movlw	(0x0/2)
  2179  004B  00D3               	movwf	(?_spi_write+1)
  2180  004C  3005               	movlw	(05h)
  2181  004D  118A  253C  118A   	fcall	_spi_write
  2182                           	line	206
  2183                           	
  2184  0050                     l3835:	
  2185                           ;master.c: 206: app_command_buf[0] = 0x11;
  2186  0050  3011               	movlw	(011h)
  2187  0051  1283               	bcf	status, 5	;RP0=0, select bank0
  2188  0052  1303               	bcf	status, 6	;RP1=0, select bank0
  2189  0053  00D7               	movwf	(??_SI4463_init+0)+0
  2190  0054  0857               	movf	(??_SI4463_init+0)+0,w
  2191  0055  00D8               	movwf	(SI4463_init@app_command_buf)
  2192                           	line	207
  2193                           	
  2194  0056                     l3837:	
  2195                           ;master.c: 207: app_command_buf[1] = 0x00;
  2196  0056  01D9               	clrf	0+(SI4463_init@app_command_buf)+01h
  2197                           	line	208
  2198                           ;master.c: 208: app_command_buf[2] = 0x01;
  2199  0057  01DA               	clrf	0+(SI4463_init@app_command_buf)+02h
  2200  0058  1403               	bsf	status,0
  2201  0059  0DDA               	rlf	0+(SI4463_init@app_command_buf)+02h,f
  2202                           	line	209
  2203                           	
  2204  005A                     l3839:	
  2205                           ;master.c: 209: app_command_buf[3] = 0x03;
  2206  005A  3003               	movlw	(03h)
  2207  005B  00D7               	movwf	(??_SI4463_init+0)+0
  2208  005C  0857               	movf	(??_SI4463_init+0)+0,w
  2209  005D  00DB               	movwf	0+(SI4463_init@app_command_buf)+03h
  2210                           	line	210
  2211                           	
  2212  005E                     l3841:	
  2213                           ;master.c: 210: app_command_buf[4] = 0x40;
  2214  005E  3040               	movlw	(040h)
  2215  005F  00D7               	movwf	(??_SI4463_init+0)+0
  2216  0060  0857               	movf	(??_SI4463_init+0)+0,w
  2217  0061  00DC               	movwf	0+(SI4463_init@app_command_buf)+04h
  2218                           	line	211
  2219                           	
  2220  0062                     l3843:	
  2221                           ;master.c: 211: spi_write(5, app_command_buf);
  2222  0062  3058               	movlw	(SI4463_init@app_command_buf&0ffh)
  2223  0063  00D2               	movwf	(?_spi_write)
  2224  0064  3000               	movlw	(0x0/2)
  2225  0065  00D3               	movwf	(?_spi_write+1)
  2226  0066  3005               	movlw	(05h)
  2227  0067  118A  253C  118A   	fcall	_spi_write
  2228                           	line	213
  2229                           	
  2230  006A                     l3845:	
  2231                           ;master.c: 213: spi_write(0x08, RF_FRR_CTL_A_MODE_4_data);
  2232  006A  30A9               	movlw	low((_RF_FRR_CTL_A_MODE_4_data-__stringbase))
  2233  006B  1283               	bcf	status, 5	;RP0=0, select bank0
  2234  006C  1303               	bcf	status, 6	;RP1=0, select bank0
  2235  006D  00D2               	movwf	(?_spi_write)
  2236  006E  3080               	movlw	80h
  2237  006F  00D3               	movwf	(?_spi_write+1)
  2238  0070  3008               	movlw	(08h)
  2239  0071  118A  253C  118A   	fcall	_spi_write
  2240                           	line	216
  2241                           	
  2242  0074                     l3847:	
  2243                           ;master.c: 216: app_command_buf[0] = 0x11;
  2244  0074  3011               	movlw	(011h)
  2245  0075  1283               	bcf	status, 5	;RP0=0, select bank0
  2246  0076  1303               	bcf	status, 6	;RP1=0, select bank0
  2247  0077  00D7               	movwf	(??_SI4463_init+0)+0
  2248  0078  0857               	movf	(??_SI4463_init+0)+0,w
  2249  0079  00D8               	movwf	(SI4463_init@app_command_buf)
  2250                           	line	217
  2251                           	
  2252  007A                     l3849:	
  2253                           ;master.c: 217: app_command_buf[1] = 0x10;
  2254  007A  3010               	movlw	(010h)
  2255  007B  00D7               	movwf	(??_SI4463_init+0)+0
  2256  007C  0857               	movf	(??_SI4463_init+0)+0,w
  2257  007D  00D9               	movwf	0+(SI4463_init@app_command_buf)+01h
  2258                           	line	218
  2259                           	
  2260  007E                     l3851:	
  2261                           ;master.c: 218: app_command_buf[2] = 0x09;
  2262  007E  3009               	movlw	(09h)
  2263  007F  00D7               	movwf	(??_SI4463_init+0)+0
  2264  0080  0857               	movf	(??_SI4463_init+0)+0,w
  2265  0081  00DA               	movwf	0+(SI4463_init@app_command_buf)+02h
  2266                           	line	219
  2267                           	
  2268  0082                     l3853:	
  2269                           ;master.c: 219: app_command_buf[3] = 0x00;
  2270  0082  01DB               	clrf	0+(SI4463_init@app_command_buf)+03h
  2271                           	line	220
  2272                           	
  2273  0083                     l3855:	
  2274                           ;master.c: 220: app_command_buf[4] = 0x08;
  2275  0083  3008               	movlw	(08h)
  2276  0084  00D7               	movwf	(??_SI4463_init+0)+0
  2277  0085  0857               	movf	(??_SI4463_init+0)+0,w
  2278  0086  00DC               	movwf	0+(SI4463_init@app_command_buf)+04h
  2279                           	line	221
  2280                           	
  2281  0087                     l3857:	
  2282                           ;master.c: 221: app_command_buf[5] = 0x14;
  2283  0087  3014               	movlw	(014h)
  2284  0088  00D7               	movwf	(??_SI4463_init+0)+0
  2285  0089  0857               	movf	(??_SI4463_init+0)+0,w
  2286  008A  00DD               	movwf	0+(SI4463_init@app_command_buf)+05h
  2287                           	line	222
  2288                           	
  2289  008B                     l3859:	
  2290                           ;master.c: 222: app_command_buf[6] = 0x00;
  2291  008B  01DE               	clrf	0+(SI4463_init@app_command_buf)+06h
  2292                           	line	223
  2293                           	
  2294  008C                     l3861:	
  2295                           ;master.c: 223: app_command_buf[7] = 0x0f;
  2296  008C  300F               	movlw	(0Fh)
  2297  008D  00D7               	movwf	(??_SI4463_init+0)+0
  2298  008E  0857               	movf	(??_SI4463_init+0)+0,w
  2299  008F  00DF               	movwf	0+(SI4463_init@app_command_buf)+07h
  2300                           	line	224
  2301                           	
  2302  0090                     l3863:	
  2303                           ;master.c: 224: app_command_buf[8] = 0x31;
  2304  0090  3031               	movlw	(031h)
  2305  0091  00D7               	movwf	(??_SI4463_init+0)+0
  2306  0092  0857               	movf	(??_SI4463_init+0)+0,w
  2307  0093  00E0               	movwf	0+(SI4463_init@app_command_buf)+08h
  2308                           	line	225
  2309                           	
  2310  0094                     l3865:	
  2311                           ;master.c: 225: app_command_buf[9] = 0x00;
  2312  0094  01E1               	clrf	0+(SI4463_init@app_command_buf)+09h
  2313                           	line	226
  2314                           	
  2315  0095                     l3867:	
  2316                           ;master.c: 226: app_command_buf[10] = 0x00;
  2317  0095  01E2               	clrf	0+(SI4463_init@app_command_buf)+0Ah
  2318                           	line	227
  2319                           	
  2320  0096                     l3869:	
  2321                           ;master.c: 227: app_command_buf[11] = 0x00;
  2322  0096  01E3               	clrf	0+(SI4463_init@app_command_buf)+0Bh
  2323                           	line	228
  2324                           	
  2325  0097                     l3871:	
  2326                           ;master.c: 228: app_command_buf[12] = 0x00;
  2327  0097  01E4               	clrf	0+(SI4463_init@app_command_buf)+0Ch
  2328                           	line	229
  2329                           	
  2330  0098                     l3873:	
  2331                           ;master.c: 229: spi_write(13, app_command_buf);
  2332  0098  3058               	movlw	(SI4463_init@app_command_buf&0ffh)
  2333  0099  00D2               	movwf	(?_spi_write)
  2334  009A  3000               	movlw	(0x0/2)
  2335  009B  00D3               	movwf	(?_spi_write+1)
  2336  009C  300D               	movlw	(0Dh)
  2337  009D  118A  253C  118A   	fcall	_spi_write
  2338                           	line	232
  2339                           	
  2340  00A0                     l3875:	
  2341                           ;master.c: 232: app_command_buf[0] = 0x11;
  2342  00A0  3011               	movlw	(011h)
  2343  00A1  1283               	bcf	status, 5	;RP0=0, select bank0
  2344  00A2  1303               	bcf	status, 6	;RP1=0, select bank0
  2345  00A3  00D7               	movwf	(??_SI4463_init+0)+0
  2346  00A4  0857               	movf	(??_SI4463_init+0)+0,w
  2347  00A5  00D8               	movwf	(SI4463_init@app_command_buf)
  2348                           	line	233
  2349                           	
  2350  00A6                     l3877:	
  2351                           ;master.c: 233: app_command_buf[1] = 0x11;
  2352  00A6  3011               	movlw	(011h)
  2353  00A7  00D7               	movwf	(??_SI4463_init+0)+0
  2354  00A8  0857               	movf	(??_SI4463_init+0)+0,w
  2355  00A9  00D9               	movwf	0+(SI4463_init@app_command_buf)+01h
  2356                           	line	234
  2357                           	
  2358  00AA                     l3879:	
  2359                           ;master.c: 234: app_command_buf[2] = 0x05;
  2360  00AA  3005               	movlw	(05h)
  2361  00AB  00D7               	movwf	(??_SI4463_init+0)+0
  2362  00AC  0857               	movf	(??_SI4463_init+0)+0,w
  2363  00AD  00DA               	movwf	0+(SI4463_init@app_command_buf)+02h
  2364                           	line	235
  2365                           	
  2366  00AE                     l3881:	
  2367                           ;master.c: 235: app_command_buf[3] = 0x00;
  2368  00AE  01DB               	clrf	0+(SI4463_init@app_command_buf)+03h
  2369                           	line	236
  2370                           	
  2371  00AF                     l3883:	
  2372                           ;master.c: 236: app_command_buf[4] = 0x01;
  2373  00AF  01DC               	clrf	0+(SI4463_init@app_command_buf)+04h
  2374  00B0  1403               	bsf	status,0
  2375  00B1  0DDC               	rlf	0+(SI4463_init@app_command_buf)+04h,f
  2376                           	line	237
  2377                           	
  2378  00B2                     l3885:	
  2379                           ;master.c: 237: app_command_buf[5] = 0x2d;
  2380  00B2  302D               	movlw	(02Dh)
  2381  00B3  00D7               	movwf	(??_SI4463_init+0)+0
  2382  00B4  0857               	movf	(??_SI4463_init+0)+0,w
  2383  00B5  00DD               	movwf	0+(SI4463_init@app_command_buf)+05h
  2384                           	line	238
  2385                           	
  2386  00B6                     l3887:	
  2387                           ;master.c: 238: app_command_buf[6] = 0xd4;
  2388  00B6  30D4               	movlw	(0D4h)
  2389  00B7  00D7               	movwf	(??_SI4463_init+0)+0
  2390  00B8  0857               	movf	(??_SI4463_init+0)+0,w
  2391  00B9  00DE               	movwf	0+(SI4463_init@app_command_buf)+06h
  2392                           	line	239
  2393                           	
  2394  00BA                     l3889:	
  2395                           ;master.c: 239: app_command_buf[7] = 0x00;
  2396  00BA  01DF               	clrf	0+(SI4463_init@app_command_buf)+07h
  2397                           	line	240
  2398                           	
  2399  00BB                     l3891:	
  2400                           ;master.c: 240: app_command_buf[8] = 0x00;
  2401  00BB  01E0               	clrf	0+(SI4463_init@app_command_buf)+08h
  2402                           	line	241
  2403                           ;master.c: 241: spi_write(9, app_command_buf);
  2404  00BC  3058               	movlw	(SI4463_init@app_command_buf&0ffh)
  2405  00BD  00D2               	movwf	(?_spi_write)
  2406  00BE  3000               	movlw	(0x0/2)
  2407  00BF  00D3               	movwf	(?_spi_write+1)
  2408  00C0  3009               	movlw	(09h)
  2409  00C1  118A  253C  118A   	fcall	_spi_write
  2410                           	line	244
  2411                           	
  2412  00C4                     l3893:	
  2413                           ;master.c: 244: app_command_buf[0] = 0x11;
  2414  00C4  3011               	movlw	(011h)
  2415  00C5  1283               	bcf	status, 5	;RP0=0, select bank0
  2416  00C6  1303               	bcf	status, 6	;RP1=0, select bank0
  2417  00C7  00D7               	movwf	(??_SI4463_init+0)+0
  2418  00C8  0857               	movf	(??_SI4463_init+0)+0,w
  2419  00C9  00D8               	movwf	(SI4463_init@app_command_buf)
  2420                           	line	245
  2421                           	
  2422  00CA                     l3895:	
  2423                           ;master.c: 245: app_command_buf[1] = 0x12;
  2424  00CA  3012               	movlw	(012h)
  2425  00CB  00D7               	movwf	(??_SI4463_init+0)+0
  2426  00CC  0857               	movf	(??_SI4463_init+0)+0,w
  2427  00CD  00D9               	movwf	0+(SI4463_init@app_command_buf)+01h
  2428                           	line	246
  2429                           	
  2430  00CE                     l3897:	
  2431                           ;master.c: 246: app_command_buf[2] = 0x01;
  2432  00CE  01DA               	clrf	0+(SI4463_init@app_command_buf)+02h
  2433  00CF  1403               	bsf	status,0
  2434  00D0  0DDA               	rlf	0+(SI4463_init@app_command_buf)+02h,f
  2435                           	line	247
  2436                           	
  2437  00D1                     l3899:	
  2438                           ;master.c: 247: app_command_buf[3] = 0x00;
  2439  00D1  01DB               	clrf	0+(SI4463_init@app_command_buf)+03h
  2440                           	line	248
  2441                           	
  2442  00D2                     l3901:	
  2443                           ;master.c: 248: app_command_buf[4] = 0x81;
  2444  00D2  3081               	movlw	(081h)
  2445  00D3  00D7               	movwf	(??_SI4463_init+0)+0
  2446  00D4  0857               	movf	(??_SI4463_init+0)+0,w
  2447  00D5  00DC               	movwf	0+(SI4463_init@app_command_buf)+04h
  2448                           	line	249
  2449                           	
  2450  00D6                     l3903:	
  2451                           ;master.c: 249: spi_write(5, app_command_buf);
  2452  00D6  3058               	movlw	(SI4463_init@app_command_buf&0ffh)
  2453  00D7  00D2               	movwf	(?_spi_write)
  2454  00D8  3000               	movlw	(0x0/2)
  2455  00D9  00D3               	movwf	(?_spi_write+1)
  2456  00DA  3005               	movlw	(05h)
  2457  00DB  118A  253C  118A   	fcall	_spi_write
  2458                           	line	252
  2459                           	
  2460  00DE                     l3905:	
  2461                           ;master.c: 252: app_command_buf[0] = 0x11;
  2462  00DE  3011               	movlw	(011h)
  2463  00DF  1283               	bcf	status, 5	;RP0=0, select bank0
  2464  00E0  1303               	bcf	status, 6	;RP1=0, select bank0
  2465  00E1  00D7               	movwf	(??_SI4463_init+0)+0
  2466  00E2  0857               	movf	(??_SI4463_init+0)+0,w
  2467  00E3  00D8               	movwf	(SI4463_init@app_command_buf)
  2468                           	line	253
  2469                           	
  2470  00E4                     l3907:	
  2471                           ;master.c: 253: app_command_buf[1] = 0x12;
  2472  00E4  3012               	movlw	(012h)
  2473  00E5  00D7               	movwf	(??_SI4463_init+0)+0
  2474  00E6  0857               	movf	(??_SI4463_init+0)+0,w
  2475  00E7  00D9               	movwf	0+(SI4463_init@app_command_buf)+01h
  2476                           	line	254
  2477                           	
  2478  00E8                     l3909:	
  2479                           ;master.c: 254: app_command_buf[2] = 0x01;
  2480  00E8  01DA               	clrf	0+(SI4463_init@app_command_buf)+02h
  2481  00E9  1403               	bsf	status,0
  2482  00EA  0DDA               	rlf	0+(SI4463_init@app_command_buf)+02h,f
  2483                           	line	255
  2484                           ;master.c: 255: app_command_buf[3] = 0x06;
  2485  00EB  3006               	movlw	(06h)
  2486  00EC  00D7               	movwf	(??_SI4463_init+0)+0
  2487  00ED  0857               	movf	(??_SI4463_init+0)+0,w
  2488  00EE  00DB               	movwf	0+(SI4463_init@app_command_buf)+03h
  2489                           	line	256
  2490                           ;master.c: 256: app_command_buf[4] = 0x02;
  2491  00EF  3002               	movlw	(02h)
  2492  00F0  00D7               	movwf	(??_SI4463_init+0)+0
  2493  00F1  0857               	movf	(??_SI4463_init+0)+0,w
  2494  00F2  00DC               	movwf	0+(SI4463_init@app_command_buf)+04h
  2495                           	line	257
  2496                           	
  2497  00F3                     l3911:	
  2498                           ;master.c: 257: spi_write(5, app_command_buf);
  2499  00F3  3058               	movlw	(SI4463_init@app_command_buf&0ffh)
  2500  00F4  00D2               	movwf	(?_spi_write)
  2501  00F5  3000               	movlw	(0x0/2)
  2502  00F6  00D3               	movwf	(?_spi_write+1)
  2503  00F7  3005               	movlw	(05h)
  2504  00F8  118A  253C  118A   	fcall	_spi_write
  2505                           	line	260
  2506                           	
  2507  00FB                     l3913:	
  2508                           ;master.c: 260: app_command_buf[0] = 0x11;
  2509  00FB  3011               	movlw	(011h)
  2510  00FC  1283               	bcf	status, 5	;RP0=0, select bank0
  2511  00FD  1303               	bcf	status, 6	;RP1=0, select bank0
  2512  00FE  00D7               	movwf	(??_SI4463_init+0)+0
  2513  00FF  0857               	movf	(??_SI4463_init+0)+0,w
  2514  0100  00D8               	movwf	(SI4463_init@app_command_buf)
  2515                           	line	261
  2516                           	
  2517  0101                     l3915:	
  2518                           ;master.c: 261: app_command_buf[1] = 0x12;
  2519  0101  3012               	movlw	(012h)
  2520  0102  00D7               	movwf	(??_SI4463_init+0)+0
  2521  0103  0857               	movf	(??_SI4463_init+0)+0,w
  2522  0104  00D9               	movwf	0+(SI4463_init@app_command_buf)+01h
  2523                           	line	262
  2524                           	
  2525  0105                     l3917:	
  2526                           ;master.c: 262: app_command_buf[2] = 0x03;
  2527  0105  3003               	movlw	(03h)
  2528  0106  00D7               	movwf	(??_SI4463_init+0)+0
  2529  0107  0857               	movf	(??_SI4463_init+0)+0,w
  2530  0108  00DA               	movwf	0+(SI4463_init@app_command_buf)+02h
  2531                           	line	263
  2532                           	
  2533  0109                     l3919:	
  2534                           ;master.c: 263: app_command_buf[3] = 0x08;
  2535  0109  3008               	movlw	(08h)
  2536  010A  00D7               	movwf	(??_SI4463_init+0)+0
  2537  010B  0857               	movf	(??_SI4463_init+0)+0,w
  2538  010C  00DB               	movwf	0+(SI4463_init@app_command_buf)+03h
  2539                           	line	264
  2540                           	
  2541  010D                     l3921:	
  2542                           ;master.c: 264: app_command_buf[4] = 0x00;
  2543  010D  01DC               	clrf	0+(SI4463_init@app_command_buf)+04h
  2544                           	line	265
  2545                           	
  2546  010E                     l3923:	
  2547                           ;master.c: 265: app_command_buf[5] = 0x00;
  2548  010E  01DD               	clrf	0+(SI4463_init@app_command_buf)+05h
  2549                           	line	266
  2550                           	
  2551  010F                     l3925:	
  2552                           ;master.c: 266: app_command_buf[6] = 0x00;
  2553  010F  01DE               	clrf	0+(SI4463_init@app_command_buf)+06h
  2554                           	line	267
  2555                           	
  2556  0110                     l3927:	
  2557                           ;master.c: 267: spi_write(7, app_command_buf);
  2558  0110  3058               	movlw	(SI4463_init@app_command_buf&0ffh)
  2559  0111  00D2               	movwf	(?_spi_write)
  2560  0112  3000               	movlw	(0x0/2)
  2561  0113  00D3               	movwf	(?_spi_write+1)
  2562  0114  3007               	movlw	(07h)
  2563  0115  118A  253C  118A   	fcall	_spi_write
  2564                           	line	269
  2565                           ;master.c: 269: app_command_buf[0] = 0x11;
  2566  0118  3011               	movlw	(011h)
  2567  0119  1283               	bcf	status, 5	;RP0=0, select bank0
  2568  011A  1303               	bcf	status, 6	;RP1=0, select bank0
  2569  011B  00D7               	movwf	(??_SI4463_init+0)+0
  2570  011C  0857               	movf	(??_SI4463_init+0)+0,w
  2571  011D  00D8               	movwf	(SI4463_init@app_command_buf)
  2572                           	line	270
  2573                           ;master.c: 270: app_command_buf[1] = 0x12;
  2574  011E  3012               	movlw	(012h)
  2575  011F  00D7               	movwf	(??_SI4463_init+0)+0
  2576  0120  0857               	movf	(??_SI4463_init+0)+0,w
  2577  0121  00D9               	movwf	0+(SI4463_init@app_command_buf)+01h
  2578                           	line	271
  2579                           ;master.c: 271: app_command_buf[2] = 0x0c;
  2580  0122  300C               	movlw	(0Ch)
  2581  0123  00D7               	movwf	(??_SI4463_init+0)+0
  2582  0124  0857               	movf	(??_SI4463_init+0)+0,w
  2583  0125  00DA               	movwf	0+(SI4463_init@app_command_buf)+02h
  2584                           	line	272
  2585                           ;master.c: 272: app_command_buf[3] = 0x0d;
  2586  0126  300D               	movlw	(0Dh)
  2587  0127  00D7               	movwf	(??_SI4463_init+0)+0
  2588  0128  0857               	movf	(??_SI4463_init+0)+0,w
  2589  0129  00DB               	movwf	0+(SI4463_init@app_command_buf)+03h
  2590                           	line	273
  2591                           	
  2592  012A                     l3929:	
  2593                           ;master.c: 273: app_command_buf[4] = 0x00;
  2594  012A  01DC               	clrf	0+(SI4463_init@app_command_buf)+04h
  2595                           	line	274
  2596                           ;master.c: 274: app_command_buf[5] = 14;
  2597  012B  300E               	movlw	(0Eh)
  2598  012C  00D7               	movwf	(??_SI4463_init+0)+0
  2599  012D  0857               	movf	(??_SI4463_init+0)+0,w
  2600  012E  00DD               	movwf	0+(SI4463_init@app_command_buf)+05h
  2601                           	line	275
  2602                           ;master.c: 275: app_command_buf[6] = 0x04;
  2603  012F  3004               	movlw	(04h)
  2604  0130  00D7               	movwf	(??_SI4463_init+0)+0
  2605  0131  0857               	movf	(??_SI4463_init+0)+0,w
  2606  0132  00DE               	movwf	0+(SI4463_init@app_command_buf)+06h
  2607                           	line	276
  2608                           ;master.c: 276: app_command_buf[7] = 0xaa;
  2609  0133  30AA               	movlw	(0AAh)
  2610  0134  00D7               	movwf	(??_SI4463_init+0)+0
  2611  0135  0857               	movf	(??_SI4463_init+0)+0,w
  2612  0136  00DF               	movwf	0+(SI4463_init@app_command_buf)+07h
  2613                           	line	277
  2614                           	
  2615  0137                     l3931:	
  2616                           ;master.c: 277: app_command_buf[8] = 0x00;
  2617  0137  01E0               	clrf	0+(SI4463_init@app_command_buf)+08h
  2618                           	line	278
  2619                           	
  2620  0138                     l3933:	
  2621                           ;master.c: 278: app_command_buf[9] = 0x00;
  2622  0138  01E1               	clrf	0+(SI4463_init@app_command_buf)+09h
  2623                           	line	279
  2624                           	
  2625  0139                     l3935:	
  2626                           ;master.c: 279: app_command_buf[10] = 0x00;
  2627  0139  01E2               	clrf	0+(SI4463_init@app_command_buf)+0Ah
  2628                           	line	280
  2629                           	
  2630  013A                     l3937:	
  2631                           ;master.c: 280: app_command_buf[11] = 0x00;
  2632  013A  01E3               	clrf	0+(SI4463_init@app_command_buf)+0Bh
  2633                           	line	281
  2634                           	
  2635  013B                     l3939:	
  2636                           ;master.c: 281: app_command_buf[12] = 0x00;
  2637  013B  01E4               	clrf	0+(SI4463_init@app_command_buf)+0Ch
  2638                           	line	282
  2639                           	
  2640  013C                     l3941:	
  2641                           ;master.c: 282: app_command_buf[13] = 0x00;
  2642  013C  01E5               	clrf	0+(SI4463_init@app_command_buf)+0Dh
  2643                           	line	283
  2644                           	
  2645  013D                     l3943:	
  2646                           ;master.c: 283: app_command_buf[14] = 0x00;
  2647  013D  01E6               	clrf	0+(SI4463_init@app_command_buf)+0Eh
  2648                           	line	284
  2649                           	
  2650  013E                     l3945:	
  2651                           ;master.c: 284: app_command_buf[15] = 0x00;
  2652  013E  01E7               	clrf	0+(SI4463_init@app_command_buf)+0Fh
  2653                           	line	285
  2654                           	
  2655  013F                     l3947:	
  2656                           ;master.c: 285: spi_write(16, app_command_buf);
  2657  013F  3058               	movlw	(SI4463_init@app_command_buf&0ffh)
  2658  0140  00D2               	movwf	(?_spi_write)
  2659  0141  3000               	movlw	(0x0/2)
  2660  0142  00D3               	movwf	(?_spi_write+1)
  2661  0143  3010               	movlw	(010h)
  2662  0144  118A  253C  118A   	fcall	_spi_write
  2663                           	line	288
  2664                           	
  2665  0147                     l3949:	
  2666                           ;master.c: 288: app_command_buf[0] = 0x11;
  2667  0147  3011               	movlw	(011h)
  2668  0148  1283               	bcf	status, 5	;RP0=0, select bank0
  2669  0149  1303               	bcf	status, 6	;RP1=0, select bank0
  2670  014A  00D7               	movwf	(??_SI4463_init+0)+0
  2671  014B  0857               	movf	(??_SI4463_init+0)+0,w
  2672  014C  00D8               	movwf	(SI4463_init@app_command_buf)
  2673                           	line	289
  2674                           	
  2675  014D                     l3951:	
  2676                           ;master.c: 289: app_command_buf[1] = 0x12;
  2677  014D  3012               	movlw	(012h)
  2678  014E  00D7               	movwf	(??_SI4463_init+0)+0
  2679  014F  0857               	movf	(??_SI4463_init+0)+0,w
  2680  0150  00D9               	movwf	0+(SI4463_init@app_command_buf)+01h
  2681                           	line	290
  2682                           	
  2683  0151                     l3953:	
  2684                           ;master.c: 290: app_command_buf[2] = 0x08;
  2685  0151  3008               	movlw	(08h)
  2686  0152  00D7               	movwf	(??_SI4463_init+0)+0
  2687  0153  0857               	movf	(??_SI4463_init+0)+0,w
  2688  0154  00DA               	movwf	0+(SI4463_init@app_command_buf)+02h
  2689                           	line	291
  2690                           	
  2691  0155                     l3955:	
  2692                           ;master.c: 291: app_command_buf[3] = 0x19;
  2693  0155  3019               	movlw	(019h)
  2694  0156  00D7               	movwf	(??_SI4463_init+0)+0
  2695  0157  0857               	movf	(??_SI4463_init+0)+0,w
  2696  0158  00DB               	movwf	0+(SI4463_init@app_command_buf)+03h
  2697                           	line	292
  2698                           	
  2699  0159                     l3957:	
  2700                           ;master.c: 292: app_command_buf[4] = 0x00;
  2701  0159  01DC               	clrf	0+(SI4463_init@app_command_buf)+04h
  2702                           	line	293
  2703                           	
  2704  015A                     l3959:	
  2705                           ;master.c: 293: app_command_buf[5] = 0x00;
  2706  015A  01DD               	clrf	0+(SI4463_init@app_command_buf)+05h
  2707                           	line	294
  2708                           	
  2709  015B                     l3961:	
  2710                           ;master.c: 294: app_command_buf[6] = 0x00;
  2711  015B  01DE               	clrf	0+(SI4463_init@app_command_buf)+06h
  2712                           	line	295
  2713                           	
  2714  015C                     l3963:	
  2715                           ;master.c: 295: app_command_buf[7] = 0x00;
  2716  015C  01DF               	clrf	0+(SI4463_init@app_command_buf)+07h
  2717                           	line	296
  2718                           	
  2719  015D                     l3965:	
  2720                           ;master.c: 296: app_command_buf[8] = 0x00;
  2721  015D  01E0               	clrf	0+(SI4463_init@app_command_buf)+08h
  2722                           	line	297
  2723                           	
  2724  015E                     l3967:	
  2725                           ;master.c: 297: app_command_buf[9] = 0x00;
  2726  015E  01E1               	clrf	0+(SI4463_init@app_command_buf)+09h
  2727                           	line	298
  2728                           	
  2729  015F                     l3969:	
  2730                           ;master.c: 298: app_command_buf[10] = 0x00;
  2731  015F  01E2               	clrf	0+(SI4463_init@app_command_buf)+0Ah
  2732                           	line	299
  2733                           	
  2734  0160                     l3971:	
  2735                           ;master.c: 299: app_command_buf[11] = 0x00;
  2736  0160  01E3               	clrf	0+(SI4463_init@app_command_buf)+0Bh
  2737                           	line	300
  2738                           	
  2739  0161                     l3973:	
  2740                           ;master.c: 300: spi_write(12, app_command_buf);
  2741  0161  3058               	movlw	(SI4463_init@app_command_buf&0ffh)
  2742  0162  00D2               	movwf	(?_spi_write)
  2743  0163  3000               	movlw	(0x0/2)
  2744  0164  00D3               	movwf	(?_spi_write+1)
  2745  0165  300C               	movlw	(0Ch)
  2746  0166  118A  253C  118A   	fcall	_spi_write
  2747                           	line	302
  2748                           	
  2749  0169                     l3975:	
  2750                           ;master.c: 302: spi_write(0x10, RF_MODEM_MOD_TYPE_12_data);
  2751  0169  3066               	movlw	low((_RF_MODEM_MOD_TYPE_12_data-__stringbase))
  2752  016A  1283               	bcf	status, 5	;RP0=0, select bank0
  2753  016B  1303               	bcf	status, 6	;RP1=0, select bank0
  2754  016C  00D2               	movwf	(?_spi_write)
  2755  016D  3080               	movlw	80h
  2756  016E  00D3               	movwf	(?_spi_write+1)
  2757  016F  3010               	movlw	(010h)
  2758  0170  118A  253C  118A   	fcall	_spi_write
  2759                           	line	303
  2760                           	
  2761  0173                     l3977:	
  2762                           ;master.c: 303: spi_write(0x05, RF_MODEM_FREQ_DEV_0_1_data);
  2763  0173  30C3               	movlw	low((_RF_MODEM_FREQ_DEV_0_1_data-__stringbase))
  2764  0174  1283               	bcf	status, 5	;RP0=0, select bank0
  2765  0175  1303               	bcf	status, 6	;RP1=0, select bank0
  2766  0176  00D2               	movwf	(?_spi_write)
  2767  0177  3080               	movlw	80h
  2768  0178  00D3               	movwf	(?_spi_write+1)
  2769  0179  3005               	movlw	(05h)
  2770  017A  118A  253C  118A   	fcall	_spi_write
  2771                           	line	305
  2772                           	
  2773  017D                     l3979:	
  2774                           ;master.c: 305: spi_write(0x10, RF_MODEM_TX_RAMP_DELAY_12_data);
  2775  017D  3076               	movlw	low((_RF_MODEM_TX_RAMP_DELAY_12_data-__stringbase))
  2776  017E  1283               	bcf	status, 5	;RP0=0, select bank0
  2777  017F  1303               	bcf	status, 6	;RP1=0, select bank0
  2778  0180  00D2               	movwf	(?_spi_write)
  2779  0181  3080               	movlw	80h
  2780  0182  00D3               	movwf	(?_spi_write+1)
  2781  0183  3010               	movlw	(010h)
  2782  0184  118A  253C  118A   	fcall	_spi_write
  2783                           	line	306
  2784                           	
  2785  0187                     l3981:	
  2786                           ;master.c: 306: spi_write(0x10, BCR_NCO_OFFSET_2_12_data);
  2787  0187  3026               	movlw	low((_BCR_NCO_OFFSET_2_12_data-__stringbase))
  2788  0188  1283               	bcf	status, 5	;RP0=0, select bank0
  2789  0189  1303               	bcf	status, 6	;RP1=0, select bank0
  2790  018A  00D2               	movwf	(?_spi_write)
  2791  018B  3080               	movlw	80h
  2792  018C  00D3               	movwf	(?_spi_write+1)
  2793  018D  3010               	movlw	(010h)
  2794  018E  118A  253C  118A   	fcall	_spi_write
  2795                           	line	307
  2796                           	
  2797  0191                     l3983:	
  2798                           ;master.c: 307: spi_write(0x10, RF_MODEM_TX_RAMP_DELAY_12_data);
  2799  0191  3076               	movlw	low((_RF_MODEM_TX_RAMP_DELAY_12_data-__stringbase))
  2800  0192  1283               	bcf	status, 5	;RP0=0, select bank0
  2801  0193  1303               	bcf	status, 6	;RP1=0, select bank0
  2802  0194  00D2               	movwf	(?_spi_write)
  2803  0195  3080               	movlw	80h
  2804  0196  00D3               	movwf	(?_spi_write+1)
  2805  0197  3010               	movlw	(010h)
  2806  0198  118A  253C  118A   	fcall	_spi_write
  2807                           	line	308
  2808                           	
  2809  019B                     l3985:	
  2810                           ;master.c: 308: spi_write(0x07, RF_MODEM_AFC_LIMITER_1_3_data);
  2811  019B  30B1               	movlw	low((_RF_MODEM_AFC_LIMITER_1_3_data-__stringbase))
  2812  019C  1283               	bcf	status, 5	;RP0=0, select bank0
  2813  019D  1303               	bcf	status, 6	;RP1=0, select bank0
  2814  019E  00D2               	movwf	(?_spi_write)
  2815  019F  3080               	movlw	80h
  2816  01A0  00D3               	movwf	(?_spi_write+1)
  2817  01A1  3007               	movlw	(07h)
  2818  01A2  118A  253C  118A   	fcall	_spi_write
  2819                           	line	311
  2820                           	
  2821  01A5                     l3987:	
  2822                           ;master.c: 311: spi_write(0x05, RF_MODEM_AGC_CONTROL_1_data);
  2823  01A5  30BE               	movlw	low((_RF_MODEM_AGC_CONTROL_1_data-__stringbase))
  2824  01A6  1283               	bcf	status, 5	;RP0=0, select bank0
  2825  01A7  1303               	bcf	status, 6	;RP1=0, select bank0
  2826  01A8  00D2               	movwf	(?_spi_write)
  2827  01A9  3080               	movlw	80h
  2828  01AA  00D3               	movwf	(?_spi_write+1)
  2829  01AB  3005               	movlw	(05h)
  2830  01AC  118A  253C  118A   	fcall	_spi_write
  2831                           	line	312
  2832                           	
  2833  01AF                     l3989:	
  2834                           ;master.c: 312: spi_write(0x10, AGC_WINDOW_SIZE_12_data);
  2835  01AF  3016               	movlw	low((_AGC_WINDOW_SIZE_12_data-__stringbase))
  2836  01B0  1283               	bcf	status, 5	;RP0=0, select bank0
  2837  01B1  1303               	bcf	status, 6	;RP1=0, select bank0
  2838  01B2  00D2               	movwf	(?_spi_write)
  2839  01B3  3080               	movlw	80h
  2840  01B4  00D3               	movwf	(?_spi_write+1)
  2841  01B5  3010               	movlw	(010h)
  2842  01B6  118A  253C  118A   	fcall	_spi_write
  2843                           	line	313
  2844                           	
  2845  01B9                     l3991:	
  2846                           ;master.c: 313: spi_write(0x0c, RF_MODEM_RAW_CONTROL_8_data);
  2847  01B9  3092               	movlw	low((_RF_MODEM_RAW_CONTROL_8_data-__stringbase))
  2848  01BA  1283               	bcf	status, 5	;RP0=0, select bank0
  2849  01BB  1303               	bcf	status, 6	;RP1=0, select bank0
  2850  01BC  00D2               	movwf	(?_spi_write)
  2851  01BD  3080               	movlw	80h
  2852  01BE  00D3               	movwf	(?_spi_write+1)
  2853  01BF  300C               	movlw	(0Ch)
  2854  01C0  118A  253C  118A   	fcall	_spi_write
  2855                           	line	317
  2856                           	
  2857  01C3                     l3993:	
  2858                           ;master.c: 317: app_command_buf[0] = 0x11;
  2859  01C3  3011               	movlw	(011h)
  2860  01C4  1283               	bcf	status, 5	;RP0=0, select bank0
  2861  01C5  1303               	bcf	status, 6	;RP1=0, select bank0
  2862  01C6  00D7               	movwf	(??_SI4463_init+0)+0
  2863  01C7  0857               	movf	(??_SI4463_init+0)+0,w
  2864  01C8  00D8               	movwf	(SI4463_init@app_command_buf)
  2865                           	line	318
  2866                           	
  2867  01C9                     l3995:	
  2868                           ;master.c: 318: app_command_buf[1] = 0x20;
  2869  01C9  3020               	movlw	(020h)
  2870  01CA  00D7               	movwf	(??_SI4463_init+0)+0
  2871  01CB  0857               	movf	(??_SI4463_init+0)+0,w
  2872  01CC  00D9               	movwf	0+(SI4463_init@app_command_buf)+01h
  2873                           	line	319
  2874                           	
  2875  01CD                     l3997:	
  2876                           ;master.c: 319: app_command_buf[2] = 0x01;
  2877  01CD  01DA               	clrf	0+(SI4463_init@app_command_buf)+02h
  2878  01CE  1403               	bsf	status,0
  2879  01CF  0DDA               	rlf	0+(SI4463_init@app_command_buf)+02h,f
  2880                           	line	320
  2881                           	
  2882  01D0                     l3999:	
  2883                           ;master.c: 320: app_command_buf[3] = 0x4e;
  2884  01D0  304E               	movlw	(04Eh)
  2885  01D1  00D7               	movwf	(??_SI4463_init+0)+0
  2886  01D2  0857               	movf	(??_SI4463_init+0)+0,w
  2887  01D3  00DB               	movwf	0+(SI4463_init@app_command_buf)+03h
  2888                           	line	321
  2889                           	
  2890  01D4                     l4001:	
  2891                           ;master.c: 321: app_command_buf[4] = 0x40;
  2892  01D4  3040               	movlw	(040h)
  2893  01D5  00D7               	movwf	(??_SI4463_init+0)+0
  2894  01D6  0857               	movf	(??_SI4463_init+0)+0,w
  2895  01D7  00DC               	movwf	0+(SI4463_init@app_command_buf)+04h
  2896                           	line	322
  2897                           	
  2898  01D8                     l4003:	
  2899                           ;master.c: 322: spi_write(5, app_command_buf);
  2900  01D8  3058               	movlw	(SI4463_init@app_command_buf&0ffh)
  2901  01D9  00D2               	movwf	(?_spi_write)
  2902  01DA  3000               	movlw	(0x0/2)
  2903  01DB  00D3               	movwf	(?_spi_write+1)
  2904  01DC  3005               	movlw	(05h)
  2905  01DD  118A  253C  118A   	fcall	_spi_write
  2906                           	line	324
  2907                           	
  2908  01E0                     l4005:	
  2909                           ;master.c: 324: spi_write(0x10, COE13_7_0_12_data);
  2910  01E0  3036               	movlw	low((_COE13_7_0_12_data-__stringbase))
  2911  01E1  1283               	bcf	status, 5	;RP0=0, select bank0
  2912  01E2  1303               	bcf	status, 6	;RP1=0, select bank0
  2913  01E3  00D2               	movwf	(?_spi_write)
  2914  01E4  3080               	movlw	80h
  2915  01E5  00D3               	movwf	(?_spi_write+1)
  2916  01E6  3010               	movlw	(010h)
  2917  01E7  118A  253C  118A   	fcall	_spi_write
  2918                           	line	325
  2919                           	
  2920  01EA                     l4007:	
  2921                           ;master.c: 325: spi_write(0x10, COE1_7_0_12_data);
  2922  01EA  3046               	movlw	low((_COE1_7_0_12_data-__stringbase))
  2923  01EB  1283               	bcf	status, 5	;RP0=0, select bank0
  2924  01EC  1303               	bcf	status, 6	;RP1=0, select bank0
  2925  01ED  00D2               	movwf	(?_spi_write)
  2926  01EE  3080               	movlw	80h
  2927  01EF  00D3               	movwf	(?_spi_write+1)
  2928  01F0  3010               	movlw	(010h)
  2929  01F1  118A  253C  118A   	fcall	_spi_write
  2930                           	line	326
  2931                           	
  2932  01F4                     l4009:	
  2933                           ;master.c: 326: spi_write(0x10, COE7_7_0_12_data);
  2934  01F4  3056               	movlw	low((_COE7_7_0_12_data-__stringbase))
  2935  01F5  1283               	bcf	status, 5	;RP0=0, select bank0
  2936  01F6  1303               	bcf	status, 6	;RP1=0, select bank0
  2937  01F7  00D2               	movwf	(?_spi_write)
  2938  01F8  3080               	movlw	80h
  2939  01F9  00D3               	movwf	(?_spi_write+1)
  2940  01FA  3010               	movlw	(010h)
  2941  01FB  118A  253C  118A   	fcall	_spi_write
  2942                           	line	329
  2943                           	
  2944  01FE                     l4011:	
  2945                           ;master.c: 329: app_command_buf[0] = 0x11;
  2946  01FE  3011               	movlw	(011h)
  2947  01FF  1283               	bcf	status, 5	;RP0=0, select bank0
  2948  0200  1303               	bcf	status, 6	;RP1=0, select bank0
  2949  0201  00D7               	movwf	(??_SI4463_init+0)+0
  2950  0202  0857               	movf	(??_SI4463_init+0)+0,w
  2951  0203  00D8               	movwf	(SI4463_init@app_command_buf)
  2952                           	line	330
  2953                           	
  2954  0204                     l4013:	
  2955                           ;master.c: 330: app_command_buf[1] = 0x22;
  2956  0204  3022               	movlw	(022h)
  2957  0205  00D7               	movwf	(??_SI4463_init+0)+0
  2958  0206  0857               	movf	(??_SI4463_init+0)+0,w
  2959  0207  00D9               	movwf	0+(SI4463_init@app_command_buf)+01h
  2960                           	line	331
  2961                           	
  2962  0208                     l4015:	
  2963                           ;master.c: 331: app_command_buf[2] = 0x04;
  2964  0208  3004               	movlw	(04h)
  2965  0209  00D7               	movwf	(??_SI4463_init+0)+0
  2966  020A  0857               	movf	(??_SI4463_init+0)+0,w
  2967  020B  00DA               	movwf	0+(SI4463_init@app_command_buf)+02h
  2968                           	line	332
  2969                           	
  2970  020C                     l4017:	
  2971                           ;master.c: 332: app_command_buf[3] = 0x00;
  2972  020C  01DB               	clrf	0+(SI4463_init@app_command_buf)+03h
  2973                           	line	333
  2974                           	
  2975  020D                     l4019:	
  2976                           ;master.c: 333: app_command_buf[4] = 0x08;
  2977  020D  3008               	movlw	(08h)
  2978  020E  00D7               	movwf	(??_SI4463_init+0)+0
  2979  020F  0857               	movf	(??_SI4463_init+0)+0,w
  2980  0210  00DC               	movwf	0+(SI4463_init@app_command_buf)+04h
  2981                           	line	334
  2982                           	
  2983  0211                     l4021:	
  2984                           ;master.c: 334: app_command_buf[5] = 127;
  2985  0211  307F               	movlw	(07Fh)
  2986  0212  00D7               	movwf	(??_SI4463_init+0)+0
  2987  0213  0857               	movf	(??_SI4463_init+0)+0,w
  2988  0214  00DD               	movwf	0+(SI4463_init@app_command_buf)+05h
  2989                           	line	335
  2990                           	
  2991  0215                     l4023:	
  2992                           ;master.c: 335: app_command_buf[6] = 0x00;
  2993  0215  01DE               	clrf	0+(SI4463_init@app_command_buf)+06h
  2994                           	line	336
  2995                           	
  2996  0216                     l4025:	
  2997                           ;master.c: 336: app_command_buf[7] = 0x3d;
  2998  0216  303D               	movlw	(03Dh)
  2999  0217  00D7               	movwf	(??_SI4463_init+0)+0
  3000  0218  0857               	movf	(??_SI4463_init+0)+0,w
  3001  0219  00DF               	movwf	0+(SI4463_init@app_command_buf)+07h
  3002                           	line	337
  3003                           	
  3004  021A                     l4027:	
  3005                           ;master.c: 337: spi_write(8, app_command_buf);
  3006  021A  3058               	movlw	(SI4463_init@app_command_buf&0ffh)
  3007  021B  00D2               	movwf	(?_spi_write)
  3008  021C  3000               	movlw	(0x0/2)
  3009  021D  00D3               	movwf	(?_spi_write+1)
  3010  021E  3008               	movlw	(08h)
  3011  021F  118A  253C  118A   	fcall	_spi_write
  3012                           	line	339
  3013                           	
  3014  0222                     l4029:	
  3015                           ;master.c: 339: spi_write(0x0B, RF_SYNTH_PFDCP_CPFF_7_data);
  3016  0222  309E               	movlw	low((_RF_SYNTH_PFDCP_CPFF_7_data-__stringbase))
  3017  0223  1283               	bcf	status, 5	;RP0=0, select bank0
  3018  0224  1303               	bcf	status, 6	;RP1=0, select bank0
  3019  0225  00D2               	movwf	(?_spi_write)
  3020  0226  3080               	movlw	80h
  3021  0227  00D3               	movwf	(?_spi_write+1)
  3022  0228  300B               	movlw	(0Bh)
  3023  0229  118A  253C  118A   	fcall	_spi_write
  3024                           	line	342
  3025                           	
  3026  022C                     l4031:	
  3027                           ;master.c: 342: app_command_buf[0] = 0x11;
  3028  022C  3011               	movlw	(011h)
  3029  022D  1283               	bcf	status, 5	;RP0=0, select bank0
  3030  022E  1303               	bcf	status, 6	;RP1=0, select bank0
  3031  022F  00D7               	movwf	(??_SI4463_init+0)+0
  3032  0230  0857               	movf	(??_SI4463_init+0)+0,w
  3033  0231  00D8               	movwf	(SI4463_init@app_command_buf)
  3034                           	line	343
  3035                           	
  3036  0232                     l4033:	
  3037                           ;master.c: 343: app_command_buf[1] = 0x30;
  3038  0232  3030               	movlw	(030h)
  3039  0233  00D7               	movwf	(??_SI4463_init+0)+0
  3040  0234  0857               	movf	(??_SI4463_init+0)+0,w
  3041  0235  00D9               	movwf	0+(SI4463_init@app_command_buf)+01h
  3042                           	line	344
  3043                           	
  3044  0236                     l4035:	
  3045                           ;master.c: 344: app_command_buf[2] = 0x0c;
  3046  0236  300C               	movlw	(0Ch)
  3047  0237  00D7               	movwf	(??_SI4463_init+0)+0
  3048  0238  0857               	movf	(??_SI4463_init+0)+0,w
  3049  0239  00DA               	movwf	0+(SI4463_init@app_command_buf)+02h
  3050                           	line	345
  3051                           	
  3052  023A                     l4037:	
  3053                           ;master.c: 345: app_command_buf[3] = 0x00;
  3054  023A  01DB               	clrf	0+(SI4463_init@app_command_buf)+03h
  3055                           	line	346
  3056                           	
  3057  023B                     l4039:	
  3058                           ;master.c: 346: app_command_buf[4] = 's';
  3059  023B  3073               	movlw	(073h)
  3060  023C  00D7               	movwf	(??_SI4463_init+0)+0
  3061  023D  0857               	movf	(??_SI4463_init+0)+0,w
  3062  023E  00DC               	movwf	0+(SI4463_init@app_command_buf)+04h
  3063                           	line	347
  3064                           	
  3065  023F                     l4041:	
  3066                           ;master.c: 347: app_command_buf[5] = 0xff;
  3067  023F  30FF               	movlw	(0FFh)
  3068  0240  00D7               	movwf	(??_SI4463_init+0)+0
  3069  0241  0857               	movf	(??_SI4463_init+0)+0,w
  3070  0242  00DD               	movwf	0+(SI4463_init@app_command_buf)+05h
  3071                           	line	348
  3072                           	
  3073  0243                     l4043:	
  3074                           ;master.c: 348: app_command_buf[6] = 0x40;
  3075  0243  3040               	movlw	(040h)
  3076  0244  00D7               	movwf	(??_SI4463_init+0)+0
  3077  0245  0857               	movf	(??_SI4463_init+0)+0,w
  3078  0246  00DE               	movwf	0+(SI4463_init@app_command_buf)+06h
  3079                           	line	349
  3080                           	
  3081  0247                     l4045:	
  3082                           ;master.c: 349: app_command_buf[7] = 'w';
  3083  0247  3077               	movlw	(077h)
  3084  0248  00D7               	movwf	(??_SI4463_init+0)+0
  3085  0249  0857               	movf	(??_SI4463_init+0)+0,w
  3086  024A  00DF               	movwf	0+(SI4463_init@app_command_buf)+07h
  3087                           	line	350
  3088                           	
  3089  024B                     l4047:	
  3090                           ;master.c: 350: app_command_buf[8] = 0xff;
  3091  024B  30FF               	movlw	(0FFh)
  3092  024C  00D7               	movwf	(??_SI4463_init+0)+0
  3093  024D  0857               	movf	(??_SI4463_init+0)+0,w
  3094  024E  00E0               	movwf	0+(SI4463_init@app_command_buf)+08h
  3095                           	line	351
  3096                           	
  3097  024F                     l4049:	
  3098                           ;master.c: 351: app_command_buf[9] = 0x01;
  3099  024F  01E1               	clrf	0+(SI4463_init@app_command_buf)+09h
  3100  0250  1403               	bsf	status,0
  3101  0251  0DE1               	rlf	0+(SI4463_init@app_command_buf)+09h,f
  3102                           	line	352
  3103                           	
  3104  0252                     l4051:	
  3105                           ;master.c: 352: app_command_buf[10] = 'w';
  3106  0252  3077               	movlw	(077h)
  3107  0253  00D7               	movwf	(??_SI4463_init+0)+0
  3108  0254  0857               	movf	(??_SI4463_init+0)+0,w
  3109  0255  00E2               	movwf	0+(SI4463_init@app_command_buf)+0Ah
  3110                           	line	353
  3111                           	
  3112  0256                     l4053:	
  3113                           ;master.c: 353: app_command_buf[11] = 0xff;
  3114  0256  30FF               	movlw	(0FFh)
  3115  0257  00D7               	movwf	(??_SI4463_init+0)+0
  3116  0258  0857               	movf	(??_SI4463_init+0)+0,w
  3117  0259  00E3               	movwf	0+(SI4463_init@app_command_buf)+0Bh
  3118                           	line	354
  3119                           	
  3120  025A                     l4055:	
  3121                           ;master.c: 354: app_command_buf[12] = 0x02;
  3122  025A  3002               	movlw	(02h)
  3123  025B  00D7               	movwf	(??_SI4463_init+0)+0
  3124  025C  0857               	movf	(??_SI4463_init+0)+0,w
  3125  025D  00E4               	movwf	0+(SI4463_init@app_command_buf)+0Ch
  3126                           	line	355
  3127                           	
  3128  025E                     l4057:	
  3129                           ;master.c: 355: app_command_buf[13] = 'x';
  3130  025E  3078               	movlw	(078h)
  3131  025F  00D7               	movwf	(??_SI4463_init+0)+0
  3132  0260  0857               	movf	(??_SI4463_init+0)+0,w
  3133  0261  00E5               	movwf	0+(SI4463_init@app_command_buf)+0Dh
  3134                           	line	356
  3135                           	
  3136  0262                     l4059:	
  3137                           ;master.c: 356: app_command_buf[14] = 0xff;
  3138  0262  30FF               	movlw	(0FFh)
  3139  0263  00D7               	movwf	(??_SI4463_init+0)+0
  3140  0264  0857               	movf	(??_SI4463_init+0)+0,w
  3141  0265  00E6               	movwf	0+(SI4463_init@app_command_buf)+0Eh
  3142                           	line	357
  3143                           	
  3144  0266                     l4061:	
  3145                           ;master.c: 357: app_command_buf[15] = 0x03;
  3146  0266  3003               	movlw	(03h)
  3147  0267  00D7               	movwf	(??_SI4463_init+0)+0
  3148  0268  0857               	movf	(??_SI4463_init+0)+0,w
  3149  0269  00E7               	movwf	0+(SI4463_init@app_command_buf)+0Fh
  3150                           	line	358
  3151                           	
  3152  026A                     l4063:	
  3153                           ;master.c: 358: spi_write(16, app_command_buf);
  3154  026A  3058               	movlw	(SI4463_init@app_command_buf&0ffh)
  3155  026B  00D2               	movwf	(?_spi_write)
  3156  026C  3000               	movlw	(0x0/2)
  3157  026D  00D3               	movwf	(?_spi_write+1)
  3158  026E  3010               	movlw	(010h)
  3159  026F  118A  253C  118A   	fcall	_spi_write
  3160                           	line	360
  3161                           	
  3162  0272                     l4065:	
  3163                           ;master.c: 360: spi_write(6, RF_MODEM_RAW_SEARCH2_2_data);
  3164  0272  30B8               	movlw	low((_RF_MODEM_RAW_SEARCH2_2_data-__stringbase))
  3165  0273  1283               	bcf	status, 5	;RP0=0, select bank0
  3166  0274  1303               	bcf	status, 6	;RP1=0, select bank0
  3167  0275  00D2               	movwf	(?_spi_write)
  3168  0276  3080               	movlw	80h
  3169  0277  00D3               	movwf	(?_spi_write+1)
  3170  0278  3006               	movlw	(06h)
  3171  0279  118A  253C  118A   	fcall	_spi_write
  3172                           	line	361
  3173                           	
  3174  027C                     l4067:	
  3175                           ;master.c: 361: spi_write(12, RF_FREQ_CONTROL_INTE_8_data);
  3176  027C  3086               	movlw	low((_RF_FREQ_CONTROL_INTE_8_data-__stringbase))
  3177  027D  1283               	bcf	status, 5	;RP0=0, select bank0
  3178  027E  1303               	bcf	status, 6	;RP1=0, select bank0
  3179  027F  00D2               	movwf	(?_spi_write)
  3180  0280  3080               	movlw	80h
  3181  0281  00D3               	movwf	(?_spi_write+1)
  3182  0282  300C               	movlw	(0Ch)
  3183  0283  118A  253C  118A   	fcall	_spi_write
  3184                           	line	362
  3185                           	
  3186  0286                     l861:	
  3187  0286  0008               	return
  3188                           	opt stack 0
  3189                           GLOBAL	__end_of_SI4463_init
  3190  0287                     	__end_of_SI4463_init:
  3191 ;; =============== function _SI4463_init ends ============
  3192                           
  3193                           	signat	_SI4463_init,88
  3194                           	global	_spi_write
  3195                           psect	text482,local,class=CODE,delta=2
  3196                           global __ptext482
  3197  053C                     __ptext482:
  3198                           
  3199 ;; *************** function _spi_write *****************
  3200 ;; Defined at:
  3201 ;;		line 506 in file "C:\Users\Crow\Desktop\si4463_Vc2\SLAVE_MOD\master.c"
  3202 ;; Parameters:    Size  Location     Type
  3203 ;;  tx_length       1    wreg     unsigned char 
  3204 ;;  p               2    0[BANK0 ] PTR unsigned char 
  3205 ;;		 -> spi_read@p(1), rx_start@p(8), tx_start@p(5), rf_standby@p(2), 
  3206 ;;		 -> enable_tx_interrupt@p(6), enable_rx_interrupt@p(7), clr_interrupt@p(4), fifo_reset@p(2), 
  3207 ;;		 -> RF_FREQ_CONTROL_INTE_8_data(12), RF_MODEM_RAW_SEARCH2_2_data(6), RF_SYNTH_PFDCP_CPFF_7_data(11), COE7_7_0_12_dat
       a(16), 
  3208 ;;		 -> COE1_7_0_12_data(16), COE13_7_0_12_data(16), RF_MODEM_RAW_CONTROL_8_data(12), AGC_WINDOW_SIZE_12_data(16), 
  3209 ;;		 -> RF_MODEM_AGC_CONTROL_1_data(5), RF_MODEM_AFC_LIMITER_1_3_data(7), BCR_NCO_OFFSET_2_12_data(16), RF_MODEM_TX_RAMP
       _DELAY_12_data(16), 
  3210 ;;		 -> RF_MODEM_FREQ_DEV_0_1_data(5), RF_MODEM_MOD_TYPE_12_data(16), RF_FRR_CTL_A_MODE_4_data(8), SI4463_init@app_comma
       nd_buf(20), 
  3211 ;; Auto vars:     Size  Location     Type
  3212 ;;  tx_length       1    2[BANK0 ] unsigned char 
  3213 ;;  i               1    4[BANK0 ] unsigned char 
  3214 ;;  j               1    3[BANK0 ] unsigned char 
  3215 ;; Return value:  Size  Location     Type
  3216 ;;		None               void
  3217 ;; Registers used:
  3218 ;;		wreg, fsr0l, fsr0h, status,2, status,0, btemp+1, pclath, cstack
  3219 ;; Tracked objects:
  3220 ;;		On entry : 0/0
  3221 ;;		On exit  : 0/0
  3222 ;;		Unchanged: 0/0
  3223 ;; Data sizes:     COMMON   BANK0   BANK1   BANK2
  3224 ;;      Params:         0       2       0       0
  3225 ;;      Locals:         0       3       0       0
  3226 ;;      Temps:          1       0       0       0
  3227 ;;      Totals:         1       5       0       0
  3228 ;;Total ram usage:        6 bytes
  3229 ;; Hardware stack levels used:    1
  3230 ;; Hardware stack levels required when called:    3
  3231 ;; This function calls:
  3232 ;;		_check_cts
  3233 ;;		_spi_byte
  3234 ;; This function is called by:
  3235 ;;		_SI4463_init
  3236 ;;		_fifo_reset
  3237 ;;		_clr_interrupt
  3238 ;;		_enable_rx_interrupt
  3239 ;;		_rx_start
  3240 ;;		_spi_read
  3241 ;;		_enable_tx_interrupt
  3242 ;;		_rf_standby
  3243 ;;		_tx_start
  3244 ;; This function uses a non-reentrant model
  3245 ;;
  3246                           psect	text482
  3247                           	file	"C:\Users\Crow\Desktop\si4463_Vc2\SLAVE_MOD\master.c"
  3248                           	line	506
  3249                           	global	__size_of_spi_write
  3250  0038                     	__size_of_spi_write	equ	__end_of_spi_write-_spi_write
  3251                           	
  3252  053C                     _spi_write:	
  3253                           	opt	stack 3
  3254                           ; Regs used in _spi_write: [wreg-fsr0h+status,2+status,0+btemp+1+pclath+cstack]
  3255                           ;spi_write@tx_length stored from wreg
  3256                           	line	509
  3257  053C  1283               	bcf	status, 5	;RP0=0, select bank0
  3258  053D  1303               	bcf	status, 6	;RP1=0, select bank0
  3259  053E  00D4               	movwf	(spi_write@tx_length)
  3260                           	
  3261  053F                     l3805:	
  3262                           ;master.c: 507: unsigned char i,j;
  3263                           ;master.c: 509: i = 0;
  3264  053F  01D6               	clrf	(spi_write@i)
  3265                           	line	510
  3266                           ;master.c: 510: while(i!=0xff)
  3267  0540  2D4A               	goto	l3809
  3268                           	
  3269  0541                     l905:	
  3270                           	line	511
  3271                           	
  3272  0541                     l3807:	
  3273                           ;master.c: 511: i = check_cts();
  3274  0541  118A  26A0  118A   	fcall	_check_cts
  3275  0544  00F9               	movwf	(??_spi_write+0)+0
  3276  0545  0879               	movf	(??_spi_write+0)+0,w
  3277  0546  1283               	bcf	status, 5	;RP0=0, select bank0
  3278  0547  1303               	bcf	status, 6	;RP1=0, select bank0
  3279  0548  00D6               	movwf	(spi_write@i)
  3280  0549  2D4A               	goto	l3809
  3281                           	
  3282  054A                     l904:	
  3283                           	line	510
  3284                           	
  3285  054A                     l3809:	
  3286  054A  0856               	movf	(spi_write@i),w
  3287  054B  3AFF               	xorlw	0FFh
  3288  054C  1D03               	skipz
  3289  054D  2D4F               	goto	u2801
  3290  054E  2D50               	goto	u2800
  3291  054F                     u2801:
  3292  054F  2D41               	goto	l3807
  3293  0550                     u2800:
  3294                           	
  3295  0550                     l906:	
  3296                           	line	513
  3297                           ;master.c: 513: RC7 = 0;
  3298  0550  1387               	bcf	(63/8),(63)&7
  3299                           	line	514
  3300                           ;master.c: 514: RC2 = 0;
  3301  0551  1107               	bcf	(58/8),(58)&7
  3302                           	line	516
  3303                           ;master.c: 516: for (i = 0; i < tx_length; i++)
  3304  0552  01D6               	clrf	(spi_write@i)
  3305  0553  2D6C               	goto	l3817
  3306                           	line	517
  3307                           	
  3308  0554                     l908:	
  3309                           	line	518
  3310                           	
  3311  0554                     l3811:	
  3312                           ;master.c: 517: {
  3313                           ;master.c: 518: j = *(p+i);
  3314  0554  0856               	movf	(spi_write@i),w
  3315  0555  0752               	addwf	(spi_write@p),w
  3316  0556  0084               	movwf	fsr0
  3317  0557  0853               	movf	(spi_write@p+1),w
  3318  0558  1803               	skipnc
  3319  0559  0A53               	incf	(spi_write@p+1),w
  3320  055A  00FF               	movwf	btemp+1
  3321  055B  118A  2300  118A   	fcall	stringtab
  3322  055E  00F9               	movwf	(??_spi_write+0)+0
  3323  055F  0879               	movf	(??_spi_write+0)+0,w
  3324  0560  00D5               	movwf	(spi_write@j)
  3325                           	line	519
  3326                           	
  3327  0561                     l3813:	
  3328                           ;master.c: 519: spi_byte(j);
  3329  0561  0855               	movf	(spi_write@j),w
  3330  0562  118A  25AB  118A   	fcall	_spi_byte
  3331                           	line	516
  3332                           	
  3333  0565                     l3815:	
  3334  0565  3001               	movlw	(01h)
  3335  0566  00F9               	movwf	(??_spi_write+0)+0
  3336  0567  0879               	movf	(??_spi_write+0)+0,w
  3337  0568  1283               	bcf	status, 5	;RP0=0, select bank0
  3338  0569  1303               	bcf	status, 6	;RP1=0, select bank0
  3339  056A  07D6               	addwf	(spi_write@i),f
  3340  056B  2D6C               	goto	l3817
  3341                           	
  3342  056C                     l907:	
  3343                           	
  3344  056C                     l3817:	
  3345  056C  0854               	movf	(spi_write@tx_length),w
  3346  056D  0256               	subwf	(spi_write@i),w
  3347  056E  1C03               	skipc
  3348  056F  2D71               	goto	u2811
  3349  0570  2D72               	goto	u2810
  3350  0571                     u2811:
  3351  0571  2D54               	goto	l3811
  3352  0572                     u2810:
  3353                           	
  3354  0572                     l909:	
  3355                           	line	522
  3356                           ;master.c: 520: }
  3357                           ;master.c: 522: RC2 = 1;
  3358  0572  1507               	bsf	(58/8),(58)&7
  3359                           	line	523
  3360                           	
  3361  0573                     l910:	
  3362  0573  0008               	return
  3363                           	opt stack 0
  3364                           GLOBAL	__end_of_spi_write
  3365  0574                     	__end_of_spi_write:
  3366 ;; =============== function _spi_write ends ============
  3367                           
  3368                           	signat	_spi_write,8312
  3369                           	global	_spi_read_fifo
  3370                           psect	text483,local,class=CODE,delta=2
  3371                           global __ptext483
  3372  04FE                     __ptext483:
  3373                           
  3374 ;; *************** function _spi_read_fifo *****************
  3375 ;; Defined at:
  3376 ;;		line 583 in file "C:\Users\Crow\Desktop\si4463_Vc2\SLAVE_MOD\master.c"
  3377 ;; Parameters:    Size  Location     Type
  3378 ;;		None
  3379 ;; Auto vars:     Size  Location     Type
  3380 ;;  i               1    0[BANK0 ] unsigned char 
  3381 ;; Return value:  Size  Location     Type
  3382 ;;		None               void
  3383 ;; Registers used:
  3384 ;;		wreg, fsr0l, fsr0h, status,2, status,0, pclath, cstack
  3385 ;; Tracked objects:
  3386 ;;		On entry : 0/0
  3387 ;;		On exit  : 0/0
  3388 ;;		Unchanged: 0/0
  3389 ;; Data sizes:     COMMON   BANK0   BANK1   BANK2
  3390 ;;      Params:         0       0       0       0
  3391 ;;      Locals:         0       1       0       0
  3392 ;;      Temps:          1       0       0       0
  3393 ;;      Totals:         1       1       0       0
  3394 ;;Total ram usage:        2 bytes
  3395 ;; Hardware stack levels used:    1
  3396 ;; Hardware stack levels required when called:    3
  3397 ;; This function calls:
  3398 ;;		_check_cts
  3399 ;;		_spi_byte
  3400 ;; This function is called by:
  3401 ;;		_main
  3402 ;; This function uses a non-reentrant model
  3403 ;;
  3404                           psect	text483
  3405                           	file	"C:\Users\Crow\Desktop\si4463_Vc2\SLAVE_MOD\master.c"
  3406                           	line	583
  3407                           	global	__size_of_spi_read_fifo
  3408  003E                     	__size_of_spi_read_fifo	equ	__end_of_spi_read_fifo-_spi_read_fifo
  3409                           	
  3410  04FE                     _spi_read_fifo:	
  3411                           	opt	stack 4
  3412                           ; Regs used in _spi_read_fifo: [wreg-fsr0h+status,2+status,0+pclath+cstack]
  3413                           	line	586
  3414                           	
  3415  04FE                     l3785:	
  3416                           ;master.c: 584: U8 i;
  3417                           ;master.c: 586: i = 0;
  3418  04FE  1283               	bcf	status, 5	;RP0=0, select bank0
  3419  04FF  1303               	bcf	status, 6	;RP1=0, select bank0
  3420  0500  01D2               	clrf	(spi_read_fifo@i)
  3421                           	line	587
  3422                           ;master.c: 587: while(i!=0xff)
  3423  0501  2D0B               	goto	l3789
  3424                           	
  3425  0502                     l937:	
  3426                           	line	588
  3427                           	
  3428  0502                     l3787:	
  3429                           ;master.c: 588: i = check_cts();
  3430  0502  118A  26A0  118A   	fcall	_check_cts
  3431  0505  00F9               	movwf	(??_spi_read_fifo+0)+0
  3432  0506  0879               	movf	(??_spi_read_fifo+0)+0,w
  3433  0507  1283               	bcf	status, 5	;RP0=0, select bank0
  3434  0508  1303               	bcf	status, 6	;RP1=0, select bank0
  3435  0509  00D2               	movwf	(spi_read_fifo@i)
  3436  050A  2D0B               	goto	l3789
  3437                           	
  3438  050B                     l936:	
  3439                           	line	587
  3440                           	
  3441  050B                     l3789:	
  3442  050B  0852               	movf	(spi_read_fifo@i),w
  3443  050C  3AFF               	xorlw	0FFh
  3444  050D  1D03               	skipz
  3445  050E  2D10               	goto	u2771
  3446  050F  2D11               	goto	u2770
  3447  0510                     u2771:
  3448  0510  2D02               	goto	l3787
  3449  0511                     u2770:
  3450                           	
  3451  0511                     l938:	
  3452                           	line	590
  3453                           ;master.c: 590: RC2 = 1;
  3454  0511  1507               	bsf	(58/8),(58)&7
  3455                           	line	591
  3456                           ;master.c: 591: RC7 = 0;
  3457  0512  1387               	bcf	(63/8),(63)&7
  3458                           	line	592
  3459                           ;master.c: 592: RC2 = 0;
  3460  0513  1107               	bcf	(58/8),(58)&7
  3461                           	line	593
  3462                           	
  3463  0514                     l3791:	
  3464                           ;master.c: 593: spi_byte(0x77);
  3465  0514  3077               	movlw	(077h)
  3466  0515  118A  25AB  118A   	fcall	_spi_byte
  3467                           	line	594
  3468                           	
  3469  0518                     l3793:	
  3470                           ;master.c: 594: for (i = 0; i< 14; i++)
  3471  0518  1283               	bcf	status, 5	;RP0=0, select bank0
  3472  0519  1303               	bcf	status, 6	;RP1=0, select bank0
  3473  051A  01D2               	clrf	(spi_read_fifo@i)
  3474                           	
  3475  051B                     l3795:	
  3476  051B  300E               	movlw	(0Eh)
  3477  051C  0252               	subwf	(spi_read_fifo@i),w
  3478  051D  1C03               	skipc
  3479  051E  2D20               	goto	u2781
  3480  051F  2D21               	goto	u2780
  3481  0520                     u2781:
  3482  0520  2D23               	goto	l3799
  3483  0521                     u2780:
  3484  0521  2D3A               	goto	l940
  3485                           	
  3486  0522                     l3797:	
  3487  0522  2D3A               	goto	l940
  3488                           	line	595
  3489                           	
  3490  0523                     l939:	
  3491                           	
  3492  0523                     l3799:	
  3493                           ;master.c: 595: rx_buf[i] = spi_byte(0xff);
  3494  0523  30FF               	movlw	(0FFh)
  3495  0524  118A  25AB  118A   	fcall	_spi_byte
  3496  0527  00F9               	movwf	(??_spi_read_fifo+0)+0
  3497  0528  1283               	bcf	status, 5	;RP0=0, select bank0
  3498  0529  1303               	bcf	status, 6	;RP1=0, select bank0
  3499  052A  0852               	movf	(spi_read_fifo@i),w
  3500  052B  3E20               	addlw	_rx_buf&0ffh
  3501  052C  0084               	movwf	fsr0
  3502  052D  0879               	movf	(??_spi_read_fifo+0)+0,w
  3503  052E  1383               	bcf	status, 7	;select IRP bank0
  3504  052F  0080               	movwf	indf
  3505                           	line	594
  3506                           	
  3507  0530                     l3801:	
  3508  0530  3001               	movlw	(01h)
  3509  0531  00F9               	movwf	(??_spi_read_fifo+0)+0
  3510  0532  0879               	movf	(??_spi_read_fifo+0)+0,w
  3511  0533  07D2               	addwf	(spi_read_fifo@i),f
  3512                           	
  3513  0534                     l3803:	
  3514  0534  300E               	movlw	(0Eh)
  3515  0535  0252               	subwf	(spi_read_fifo@i),w
  3516  0536  1C03               	skipc
  3517  0537  2D39               	goto	u2791
  3518  0538  2D3A               	goto	u2790
  3519  0539                     u2791:
  3520  0539  2D23               	goto	l3799
  3521  053A                     u2790:
  3522                           	
  3523  053A                     l940:	
  3524                           	line	596
  3525                           ;master.c: 596: RC2 = 1;
  3526  053A  1507               	bsf	(58/8),(58)&7
  3527                           	line	597
  3528                           	
  3529  053B                     l941:	
  3530  053B  0008               	return
  3531                           	opt stack 0
  3532                           GLOBAL	__end_of_spi_read_fifo
  3533  053C                     	__end_of_spi_read_fifo:
  3534 ;; =============== function _spi_read_fifo ends ============
  3535                           
  3536                           	signat	_spi_read_fifo,88
  3537                           	global	_check_cts
  3538                           psect	text484,local,class=CODE,delta=2
  3539                           global __ptext484
  3540  06A0                     __ptext484:
  3541                           
  3542 ;; *************** function _check_cts *****************
  3543 ;; Defined at:
  3544 ;;		line 526 in file "C:\Users\Crow\Desktop\si4463_Vc2\SLAVE_MOD\master.c"
  3545 ;; Parameters:    Size  Location     Type
  3546 ;;		None
  3547 ;; Auto vars:     Size  Location     Type
  3548 ;;  i               1    8[COMMON] unsigned char 
  3549 ;; Return value:  Size  Location     Type
  3550 ;;                  1    wreg      unsigned char 
  3551 ;; Registers used:
  3552 ;;		wreg, status,2, status,0, pclath, cstack
  3553 ;; Tracked objects:
  3554 ;;		On entry : 0/0
  3555 ;;		On exit  : 0/0
  3556 ;;		Unchanged: 0/0
  3557 ;; Data sizes:     COMMON   BANK0   BANK1   BANK2
  3558 ;;      Params:         0       0       0       0
  3559 ;;      Locals:         1       0       0       0
  3560 ;;      Temps:          1       0       0       0
  3561 ;;      Totals:         2       0       0       0
  3562 ;;Total ram usage:        2 bytes
  3563 ;; Hardware stack levels used:    1
  3564 ;; Hardware stack levels required when called:    2
  3565 ;; This function calls:
  3566 ;;		_spi_byte
  3567 ;; This function is called by:
  3568 ;;		_spi_write
  3569 ;;		_spi_read
  3570 ;;		_spi_read_fifo
  3571 ;;		_spi_write_fifo
  3572 ;; This function uses a non-reentrant model
  3573 ;;
  3574                           psect	text484
  3575                           	file	"C:\Users\Crow\Desktop\si4463_Vc2\SLAVE_MOD\master.c"
  3576                           	line	526
  3577                           	global	__size_of_check_cts
  3578  0016                     	__size_of_check_cts	equ	__end_of_check_cts-_check_cts
  3579                           	
  3580  06A0                     _check_cts:	
  3581                           	opt	stack 3
  3582                           ; Regs used in _check_cts: [wreg+status,2+status,0+pclath+cstack]
  3583                           	line	529
  3584                           	
  3585  06A0                     l3775:	
  3586                           ;master.c: 527: U8 i;
  3587                           ;master.c: 529: RC2 = 1;
  3588  06A0  1283               	bcf	status, 5	;RP0=0, select bank0
  3589  06A1  1303               	bcf	status, 6	;RP1=0, select bank0
  3590  06A2  1507               	bsf	(58/8),(58)&7
  3591                           	line	530
  3592                           ;master.c: 530: RC7 = 0;
  3593  06A3  1387               	bcf	(63/8),(63)&7
  3594                           	line	531
  3595                           ;master.c: 531: RC2 = 0;
  3596  06A4  1107               	bcf	(58/8),(58)&7
  3597                           	line	532
  3598                           	
  3599  06A5                     l3777:	
  3600                           ;master.c: 532: spi_byte(0x44);
  3601  06A5  3044               	movlw	(044h)
  3602  06A6  118A  25AB  118A   	fcall	_spi_byte
  3603                           	line	533
  3604                           ;master.c: 533: i = spi_byte(0);
  3605  06A9  3000               	movlw	(0)
  3606  06AA  118A  25AB  118A   	fcall	_spi_byte
  3607  06AD  00F7               	movwf	(??_check_cts+0)+0
  3608  06AE  0877               	movf	(??_check_cts+0)+0,w
  3609  06AF  00F8               	movwf	(check_cts@i)
  3610                           	line	534
  3611                           	
  3612  06B0                     l3779:	
  3613                           ;master.c: 534: RC2 = 1;
  3614  06B0  1283               	bcf	status, 5	;RP0=0, select bank0
  3615  06B1  1303               	bcf	status, 6	;RP1=0, select bank0
  3616  06B2  1507               	bsf	(58/8),(58)&7
  3617                           	line	535
  3618                           	
  3619  06B3                     l3781:	
  3620                           ;master.c: 535: return (i);
  3621  06B3  0878               	movf	(check_cts@i),w
  3622  06B4  2EB5               	goto	l913
  3623                           	
  3624  06B5                     l3783:	
  3625                           	line	536
  3626                           	
  3627  06B5                     l913:	
  3628  06B5  0008               	return
  3629                           	opt stack 0
  3630                           GLOBAL	__end_of_check_cts
  3631  06B6                     	__end_of_check_cts:
  3632 ;; =============== function _check_cts ends ============
  3633                           
  3634                           	signat	_check_cts,89
  3635                           	global	_sdn_reset
  3636                           psect	text485,local,class=CODE,delta=2
  3637                           global __ptext485
  3638  04BE                     __ptext485:
  3639                           
  3640 ;; *************** function _sdn_reset *****************
  3641 ;; Defined at:
  3642 ;;		line 600 in file "C:\Users\Crow\Desktop\si4463_Vc2\SLAVE_MOD\master.c"
  3643 ;; Parameters:    Size  Location     Type
  3644 ;;		None
  3645 ;; Auto vars:     Size  Location     Type
  3646 ;;  i               1    9[COMMON] unsigned char 
  3647 ;; Return value:  Size  Location     Type
  3648 ;;		None               void
  3649 ;; Registers used:
  3650 ;;		wreg, fsr0l, fsr0h, status,2, status,0, pclath, cstack
  3651 ;; Tracked objects:
  3652 ;;		On entry : 0/0
  3653 ;;		On exit  : 0/0
  3654 ;;		Unchanged: 0/0
  3655 ;; Data sizes:     COMMON   BANK0   BANK1   BANK2
  3656 ;;      Params:         0       0       0       0
  3657 ;;      Locals:         1       0       0       0
  3658 ;;      Temps:          1       0       0       0
  3659 ;;      Totals:         2       0       0       0
  3660 ;;Total ram usage:        2 bytes
  3661 ;; Hardware stack levels used:    1
  3662 ;; Hardware stack levels required when called:    2
  3663 ;; This function calls:
  3664 ;;		_delay_1ms
  3665 ;;		_spi_byte
  3666 ;; This function is called by:
  3667 ;;		_main
  3668 ;;		_tx_data
  3669 ;; This function uses a non-reentrant model
  3670 ;;
  3671                           psect	text485
  3672                           	file	"C:\Users\Crow\Desktop\si4463_Vc2\SLAVE_MOD\master.c"
  3673                           	line	600
  3674                           	global	__size_of_sdn_reset
  3675  0040                     	__size_of_sdn_reset	equ	__end_of_sdn_reset-_sdn_reset
  3676                           	
  3677  04BE                     _sdn_reset:	
  3678                           	opt	stack 5
  3679                           ; Regs used in _sdn_reset: [wreg-fsr0h+status,2+status,0+pclath+cstack]
  3680                           	line	603
  3681                           	
  3682  04BE                     l3749:	
  3683                           ;master.c: 601: U8 i;
  3684                           ;master.c: 603: RC5 = 1;
  3685  04BE  1283               	bcf	status, 5	;RP0=0, select bank0
  3686  04BF  1303               	bcf	status, 6	;RP1=0, select bank0
  3687  04C0  1687               	bsf	(61/8),(61)&7
  3688                           	line	604
  3689                           	
  3690  04C1                     l3751:	
  3691                           ;master.c: 604: delay_1ms(2);
  3692  04C1  3002               	movlw	low(02h)
  3693  04C2  00F4               	movwf	(?_delay_1ms)
  3694  04C3  3000               	movlw	high(02h)
  3695  04C4  00F5               	movwf	((?_delay_1ms))+1
  3696  04C5  118A  25DE  118A   	fcall	_delay_1ms
  3697                           	line	605
  3698                           	
  3699  04C8                     l3753:	
  3700                           ;master.c: 605: RC5 = 0;
  3701  04C8  1283               	bcf	status, 5	;RP0=0, select bank0
  3702  04C9  1303               	bcf	status, 6	;RP1=0, select bank0
  3703  04CA  1287               	bcf	(61/8),(61)&7
  3704                           	line	606
  3705                           ;master.c: 606: delay_1ms(10);
  3706  04CB  300A               	movlw	low(0Ah)
  3707  04CC  00F4               	movwf	(?_delay_1ms)
  3708  04CD  3000               	movlw	high(0Ah)
  3709  04CE  00F5               	movwf	((?_delay_1ms))+1
  3710  04CF  118A  25DE  118A   	fcall	_delay_1ms
  3711                           	line	608
  3712                           	
  3713  04D2                     l3755:	
  3714                           ;master.c: 608: RC2 = 1;
  3715  04D2  1283               	bcf	status, 5	;RP0=0, select bank0
  3716  04D3  1303               	bcf	status, 6	;RP1=0, select bank0
  3717  04D4  1507               	bsf	(58/8),(58)&7
  3718                           	line	609
  3719                           	
  3720  04D5                     l3757:	
  3721                           ;master.c: 609: RC7 = 0;
  3722  04D5  1387               	bcf	(63/8),(63)&7
  3723                           	line	610
  3724                           	
  3725  04D6                     l3759:	
  3726                           ;master.c: 610: RC2 = 0;
  3727  04D6  1107               	bcf	(58/8),(58)&7
  3728                           	line	611
  3729                           	
  3730  04D7                     l3761:	
  3731                           ;master.c: 611: for (i = 0; i< 7; i++)
  3732  04D7  01F9               	clrf	(sdn_reset@i)
  3733                           	
  3734  04D8                     l3763:	
  3735  04D8  3007               	movlw	(07h)
  3736  04D9  0279               	subwf	(sdn_reset@i),w
  3737  04DA  1C03               	skipc
  3738  04DB  2CDD               	goto	u2751
  3739  04DC  2CDE               	goto	u2750
  3740  04DD                     u2751:
  3741  04DD  2CE0               	goto	l3767
  3742  04DE                     u2750:
  3743  04DE  2CF3               	goto	l945
  3744                           	
  3745  04DF                     l3765:	
  3746  04DF  2CF3               	goto	l945
  3747                           	line	612
  3748                           	
  3749  04E0                     l944:	
  3750                           	
  3751  04E0                     l3767:	
  3752                           ;master.c: 612: spi_byte(RF_POWER_UP_data[i]);
  3753  04E0  0879               	movf	(sdn_reset@i),w
  3754  04E1  3E0F               	addlw	low((_RF_POWER_UP_data-__stringbase))
  3755  04E2  0084               	movwf	fsr0
  3756  04E3  118A  230A  118A   	fcall	stringdir
  3757  04E6  118A  25AB  118A   	fcall	_spi_byte
  3758                           	line	611
  3759                           	
  3760  04E9                     l3769:	
  3761  04E9  3001               	movlw	(01h)
  3762  04EA  00F8               	movwf	(??_sdn_reset+0)+0
  3763  04EB  0878               	movf	(??_sdn_reset+0)+0,w
  3764  04EC  07F9               	addwf	(sdn_reset@i),f
  3765                           	
  3766  04ED                     l3771:	
  3767  04ED  3007               	movlw	(07h)
  3768  04EE  0279               	subwf	(sdn_reset@i),w
  3769  04EF  1C03               	skipc
  3770  04F0  2CF2               	goto	u2761
  3771  04F1  2CF3               	goto	u2760
  3772  04F2                     u2761:
  3773  04F2  2CE0               	goto	l3767
  3774  04F3                     u2760:
  3775                           	
  3776  04F3                     l945:	
  3777                           	line	613
  3778                           ;master.c: 613: RC2 = 1;
  3779  04F3  1283               	bcf	status, 5	;RP0=0, select bank0
  3780  04F4  1303               	bcf	status, 6	;RP1=0, select bank0
  3781  04F5  1507               	bsf	(58/8),(58)&7
  3782                           	line	615
  3783                           	
  3784  04F6                     l3773:	
  3785                           ;master.c: 615: delay_1ms(20);
  3786  04F6  3014               	movlw	low(014h)
  3787  04F7  00F4               	movwf	(?_delay_1ms)
  3788  04F8  3000               	movlw	high(014h)
  3789  04F9  00F5               	movwf	((?_delay_1ms))+1
  3790  04FA  118A  25DE  118A   	fcall	_delay_1ms
  3791                           	line	616
  3792                           	
  3793  04FD                     l946:	
  3794  04FD  0008               	return
  3795                           	opt stack 0
  3796                           GLOBAL	__end_of_sdn_reset
  3797  04FE                     	__end_of_sdn_reset:
  3798 ;; =============== function _sdn_reset ends ============
  3799                           
  3800                           	signat	_sdn_reset,88
  3801                           	global	_delay_x10ms
  3802                           psect	text486,local,class=CODE,delta=2
  3803                           global __ptext486
  3804  0687                     __ptext486:
  3805                           
  3806 ;; *************** function _delay_x10ms *****************
  3807 ;; Defined at:
  3808 ;;		line 659 in file "C:\Users\Crow\Desktop\si4463_Vc2\SLAVE_MOD\master.c"
  3809 ;; Parameters:    Size  Location     Type
  3810 ;;  dx10ms          2    6[COMMON] unsigned int 
  3811 ;; Auto vars:     Size  Location     Type
  3812 ;;  j               2    8[COMMON] unsigned int 
  3813 ;; Return value:  Size  Location     Type
  3814 ;;		None               void
  3815 ;; Registers used:
  3816 ;;		wreg, status,2, status,0, btemp+1, pclath, cstack
  3817 ;; Tracked objects:
  3818 ;;		On entry : 0/0
  3819 ;;		On exit  : 0/0
  3820 ;;		Unchanged: 0/0
  3821 ;; Data sizes:     COMMON   BANK0   BANK1   BANK2
  3822 ;;      Params:         2       0       0       0
  3823 ;;      Locals:         2       0       0       0
  3824 ;;      Temps:          0       0       0       0
  3825 ;;      Totals:         4       0       0       0
  3826 ;;Total ram usage:        4 bytes
  3827 ;; Hardware stack levels used:    1
  3828 ;; Hardware stack levels required when called:    2
  3829 ;; This function calls:
  3830 ;;		_delay_10ms
  3831 ;; This function is called by:
  3832 ;;		_main
  3833 ;; This function uses a non-reentrant model
  3834 ;;
  3835                           psect	text486
  3836                           	file	"C:\Users\Crow\Desktop\si4463_Vc2\SLAVE_MOD\master.c"
  3837                           	line	659
  3838                           	global	__size_of_delay_x10ms
  3839  0019                     	__size_of_delay_x10ms	equ	__end_of_delay_x10ms-_delay_x10ms
  3840                           	
  3841  0687                     _delay_x10ms:	
  3842                           	opt	stack 5
  3843                           ; Regs used in _delay_x10ms: [wreg+status,2+status,0+btemp+1+pclath+cstack]
  3844                           	line	662
  3845                           	
  3846  0687                     l3741:	
  3847                           ;master.c: 660: unsigned int j;
  3848                           ;master.c: 662: for(j = 0; j<dx10ms; j++)
  3849  0687  01F8               	clrf	(delay_x10ms@j)
  3850  0688  01F9               	clrf	(delay_x10ms@j+1)
  3851  0689  2E94               	goto	l3747
  3852                           	line	663
  3853                           	
  3854  068A                     l966:	
  3855                           	
  3856  068A                     l3743:	
  3857                           ;master.c: 663: delay_10ms();
  3858  068A  118A  2609  118A   	fcall	_delay_10ms
  3859                           	line	662
  3860                           	
  3861  068D                     l3745:	
  3862  068D  3001               	movlw	low(01h)
  3863  068E  07F8               	addwf	(delay_x10ms@j),f
  3864  068F  1803               	skipnc
  3865  0690  0AF9               	incf	(delay_x10ms@j+1),f
  3866  0691  3000               	movlw	high(01h)
  3867  0692  07F9               	addwf	(delay_x10ms@j+1),f
  3868  0693  2E94               	goto	l3747
  3869                           	
  3870  0694                     l965:	
  3871                           	
  3872  0694                     l3747:	
  3873  0694  0877               	movf	(delay_x10ms@dx10ms+1),w
  3874  0695  0279               	subwf	(delay_x10ms@j+1),w
  3875  0696  1D03               	skipz
  3876  0697  2E9A               	goto	u2745
  3877  0698  0876               	movf	(delay_x10ms@dx10ms),w
  3878  0699  0278               	subwf	(delay_x10ms@j),w
  3879  069A                     u2745:
  3880  069A  1C03               	skipc
  3881  069B  2E9D               	goto	u2741
  3882  069C  2E9E               	goto	u2740
  3883  069D                     u2741:
  3884  069D  2E8A               	goto	l3743
  3885  069E                     u2740:
  3886  069E  2E9F               	goto	l968
  3887                           	
  3888  069F                     l967:	
  3889                           	line	664
  3890                           	
  3891  069F                     l968:	
  3892  069F  0008               	return
  3893                           	opt stack 0
  3894                           GLOBAL	__end_of_delay_x10ms
  3895  06A0                     	__end_of_delay_x10ms:
  3896 ;; =============== function _delay_x10ms ends ============
  3897                           
  3898                           	signat	_delay_x10ms,4216
  3899                           	global	_delay_10ms
  3900                           psect	text487,local,class=CODE,delta=2
  3901                           global __ptext487
  3902  0609                     __ptext487:
  3903                           
  3904 ;; *************** function _delay_10ms *****************
  3905 ;; Defined at:
  3906 ;;		line 645 in file "C:\Users\Crow\Desktop\si4463_Vc2\SLAVE_MOD\master.c"
  3907 ;; Parameters:    Size  Location     Type
  3908 ;;		None
  3909 ;; Auto vars:     Size  Location     Type
  3910 ;;  i               2    4[COMMON] int 
  3911 ;; Return value:  Size  Location     Type
  3912 ;;		None               void
  3913 ;; Registers used:
  3914 ;;		wreg, status,2, btemp+1
  3915 ;; Tracked objects:
  3916 ;;		On entry : 0/0
  3917 ;;		On exit  : 0/0
  3918 ;;		Unchanged: 0/0
  3919 ;; Data sizes:     COMMON   BANK0   BANK1   BANK2
  3920 ;;      Params:         0       0       0       0
  3921 ;;      Locals:         2       0       0       0
  3922 ;;      Temps:          0       0       0       0
  3923 ;;      Totals:         2       0       0       0
  3924 ;;Total ram usage:        2 bytes
  3925 ;; Hardware stack levels used:    1
  3926 ;; Hardware stack levels required when called:    1
  3927 ;; This function calls:
  3928 ;;		Nothing
  3929 ;; This function is called by:
  3930 ;;		_delay_x10ms
  3931 ;; This function uses a non-reentrant model
  3932 ;;
  3933                           psect	text487
  3934                           	file	"C:\Users\Crow\Desktop\si4463_Vc2\SLAVE_MOD\master.c"
  3935                           	line	645
  3936                           	global	__size_of_delay_10ms
  3937  0026                     	__size_of_delay_10ms	equ	__end_of_delay_10ms-_delay_10ms
  3938                           	
  3939  0609                     _delay_10ms:	
  3940                           	opt	stack 5
  3941                           ; Regs used in _delay_10ms: [wreg+status,2+btemp+1]
  3942                           	line	648
  3943                           	
  3944  0609                     l3713:	
  3945                           ;master.c: 646: int i;
  3946                           ;master.c: 648: for(i = 0; i<2472; i++)
  3947  0609  01F4               	clrf	(delay_10ms@i)
  3948  060A  01F5               	clrf	(delay_10ms@i+1)
  3949                           	
  3950  060B                     l3715:	
  3951  060B  0875               	movf	(delay_10ms@i+1),w
  3952  060C  3A80               	xorlw	80h
  3953  060D  00FF               	movwf	btemp+1
  3954  060E  3089               	movlw	(high(09A8h))^80h
  3955  060F  027F               	subwf	btemp+1,w
  3956  0610  1D03               	skipz
  3957  0611  2E14               	goto	u2695
  3958  0612  30A8               	movlw	low(09A8h)
  3959  0613  0274               	subwf	(delay_10ms@i),w
  3960  0614                     u2695:
  3961                           
  3962  0614  1C03               	skipc
  3963  0615  2E17               	goto	u2691
  3964  0616  2E18               	goto	u2690
  3965  0617                     u2691:
  3966  0617  2E1A               	goto	l3719
  3967  0618                     u2690:
  3968  0618  2E2D               	goto	l961
  3969                           	
  3970  0619                     l3717:	
  3971  0619  2E2D               	goto	l961
  3972                           	line	649
  3973                           	
  3974  061A                     l960:	
  3975                           	line	648
  3976                           	
  3977  061A                     l3719:	
  3978                           ;master.c: 649: {
  3979                           ;master.c: 650: ;
  3980  061A  3001               	movlw	low(01h)
  3981  061B  07F4               	addwf	(delay_10ms@i),f
  3982  061C  1803               	skipnc
  3983  061D  0AF5               	incf	(delay_10ms@i+1),f
  3984  061E  3000               	movlw	high(01h)
  3985  061F  07F5               	addwf	(delay_10ms@i+1),f
  3986                           	
  3987  0620                     l3721:	
  3988  0620  0875               	movf	(delay_10ms@i+1),w
  3989  0621  3A80               	xorlw	80h
  3990  0622  00FF               	movwf	btemp+1
  3991  0623  3089               	movlw	(high(09A8h))^80h
  3992  0624  027F               	subwf	btemp+1,w
  3993  0625  1D03               	skipz
  3994  0626  2E29               	goto	u2705
  3995  0627  30A8               	movlw	low(09A8h)
  3996  0628  0274               	subwf	(delay_10ms@i),w
  3997  0629                     u2705:
  3998                           
  3999  0629  1C03               	skipc
  4000  062A  2E2C               	goto	u2701
  4001  062B  2E2D               	goto	u2700
  4002  062C                     u2701:
  4003  062C  2E1A               	goto	l3719
  4004  062D                     u2700:
  4005                           	
  4006  062D                     l961:	
  4007                           	line	653
  4008                           # 653 "C:\Users\Crow\Desktop\si4463_Vc2\SLAVE_MOD\master.c"
  4009  062D  0064               CLRWDT ;#
  4010                           psect	text487
  4011                           	line	655
  4012                           	
  4013  062E                     l962:	
  4014  062E  0008               	return
  4015                           	opt stack 0
  4016                           GLOBAL	__end_of_delay_10ms
  4017  062F                     	__end_of_delay_10ms:
  4018 ;; =============== function _delay_10ms ends ============
  4019                           
  4020                           	signat	_delay_10ms,88
  4021                           	global	_spi_byte
  4022                           psect	text488,local,class=CODE,delta=2
  4023                           global __ptext488
  4024  05AB                     __ptext488:
  4025                           
  4026 ;; *************** function _spi_byte *****************
  4027 ;; Defined at:
  4028 ;;		line 482 in file "C:\Users\Crow\Desktop\si4463_Vc2\SLAVE_MOD\master.c"
  4029 ;; Parameters:    Size  Location     Type
  4030 ;;  data            1    wreg     unsigned char 
  4031 ;; Auto vars:     Size  Location     Type
  4032 ;;  data            1    6[COMMON] unsigned char 
  4033 ;;  i               1    5[COMMON] unsigned char 
  4034 ;; Return value:  Size  Location     Type
  4035 ;;                  1    wreg      unsigned char 
  4036 ;; Registers used:
  4037 ;;		wreg, status,2, status,0
  4038 ;; Tracked objects:
  4039 ;;		On entry : 0/0
  4040 ;;		On exit  : 0/0
  4041 ;;		Unchanged: 0/0
  4042 ;; Data sizes:     COMMON   BANK0   BANK1   BANK2
  4043 ;;      Params:         0       0       0       0
  4044 ;;      Locals:         2       0       0       0
  4045 ;;      Temps:          1       0       0       0
  4046 ;;      Totals:         3       0       0       0
  4047 ;;Total ram usage:        3 bytes
  4048 ;; Hardware stack levels used:    1
  4049 ;; Hardware stack levels required when called:    1
  4050 ;; This function calls:
  4051 ;;		Nothing
  4052 ;; This function is called by:
  4053 ;;		_spi_write
  4054 ;;		_check_cts
  4055 ;;		_spi_read
  4056 ;;		_spi_read_fifo
  4057 ;;		_sdn_reset
  4058 ;;		_spi_write_fifo
  4059 ;; This function uses a non-reentrant model
  4060 ;;
  4061                           psect	text488
  4062                           	file	"C:\Users\Crow\Desktop\si4463_Vc2\SLAVE_MOD\master.c"
  4063                           	line	482
  4064                           	global	__size_of_spi_byte
  4065  0033                     	__size_of_spi_byte	equ	__end_of_spi_byte-_spi_byte
  4066                           	
  4067  05AB                     _spi_byte:	
  4068                           	opt	stack 4
  4069                           ; Regs used in _spi_byte: [wreg+status,2+status,0]
  4070                           ;spi_byte@data stored from wreg
  4071                           	line	485
  4072  05AB  00F6               	movwf	(spi_byte@data)
  4073                           	
  4074  05AC                     l3687:	
  4075                           ;master.c: 483: unsigned char i;
  4076                           ;master.c: 485: for (i = 0; i < 8; i++)
  4077  05AC  01F5               	clrf	(spi_byte@i)
  4078                           	
  4079  05AD                     l3689:	
  4080  05AD  3008               	movlw	(08h)
  4081  05AE  0275               	subwf	(spi_byte@i),w
  4082  05AF  1C03               	skipc
  4083  05B0  2DB2               	goto	u2651
  4084  05B1  2DB3               	goto	u2650
  4085  05B2                     u2651:
  4086  05B2  2DB5               	goto	l895
  4087  05B3                     u2650:
  4088  05B3  2DDB               	goto	l3709
  4089                           	
  4090  05B4                     l3691:	
  4091  05B4  2DDB               	goto	l3709
  4092                           	line	486
  4093                           	
  4094  05B5                     l895:	
  4095                           	line	487
  4096                           ;master.c: 486: {
  4097                           ;master.c: 487: if (data & 0x80)
  4098  05B5  1FF6               	btfss	(spi_byte@data),(7)&7
  4099  05B6  2DB8               	goto	u2661
  4100  05B7  2DB9               	goto	u2660
  4101  05B8                     u2661:
  4102  05B8  2DBD               	goto	l897
  4103  05B9                     u2660:
  4104                           	line	488
  4105                           	
  4106  05B9                     l3693:	
  4107                           ;master.c: 488: RC3 = 1;
  4108  05B9  1283               	bcf	status, 5	;RP0=0, select bank0
  4109  05BA  1303               	bcf	status, 6	;RP1=0, select bank0
  4110  05BB  1587               	bsf	(59/8),(59)&7
  4111  05BC  2DC1               	goto	l3695
  4112                           	line	489
  4113                           	
  4114  05BD                     l897:	
  4115                           	line	490
  4116                           ;master.c: 489: else
  4117                           ;master.c: 490: RC3 = 0;
  4118  05BD  1283               	bcf	status, 5	;RP0=0, select bank0
  4119  05BE  1303               	bcf	status, 6	;RP1=0, select bank0
  4120  05BF  1187               	bcf	(59/8),(59)&7
  4121  05C0  2DC1               	goto	l3695
  4122                           	
  4123  05C1                     l898:	
  4124                           	line	492
  4125                           	
  4126  05C1                     l3695:	
  4127                           ;master.c: 492: data <<= 1;
  4128  05C1  1003               	clrc
  4129  05C2  0DF6               	rlf	(spi_byte@data),f
  4130                           
  4131                           	line	493
  4132                           	
  4133  05C3                     l3697:	
  4134                           ;master.c: 493: RC7 = 1;
  4135  05C3  1787               	bsf	(63/8),(63)&7
  4136                           	line	495
  4137                           	
  4138  05C4                     l3699:	
  4139                           ;master.c: 495: if (RC1)
  4140  05C4  1C87               	btfss	(57/8),(57)&7
  4141  05C5  2DC7               	goto	u2671
  4142  05C6  2DC8               	goto	u2670
  4143  05C7                     u2671:
  4144  05C7  2DCA               	goto	l3703
  4145  05C8                     u2670:
  4146                           	line	496
  4147                           	
  4148  05C8                     l3701:	
  4149                           ;master.c: 496: data |= 0x01;
  4150  05C8  1476               	bsf	(spi_byte@data)+(0/8),(0)&7
  4151  05C9  2DCF               	goto	l3705
  4152                           	line	497
  4153                           	
  4154  05CA                     l899:	
  4155                           	line	498
  4156                           	
  4157  05CA                     l3703:	
  4158                           ;master.c: 497: else
  4159                           ;master.c: 498: data &= 0xfe;
  4160  05CA  30FE               	movlw	(0FEh)
  4161  05CB  00F4               	movwf	(??_spi_byte+0)+0
  4162  05CC  0874               	movf	(??_spi_byte+0)+0,w
  4163  05CD  05F6               	andwf	(spi_byte@data),f
  4164  05CE  2DCF               	goto	l3705
  4165                           	
  4166  05CF                     l900:	
  4167                           	line	500
  4168                           	
  4169  05CF                     l3705:	
  4170                           ;master.c: 500: RC7 = 0;
  4171  05CF  1387               	bcf	(63/8),(63)&7
  4172                           	line	485
  4173  05D0  3001               	movlw	(01h)
  4174  05D1  00F4               	movwf	(??_spi_byte+0)+0
  4175  05D2  0874               	movf	(??_spi_byte+0)+0,w
  4176  05D3  07F5               	addwf	(spi_byte@i),f
  4177                           	
  4178  05D4                     l3707:	
  4179  05D4  3008               	movlw	(08h)
  4180  05D5  0275               	subwf	(spi_byte@i),w
  4181  05D6  1C03               	skipc
  4182  05D7  2DD9               	goto	u2681
  4183  05D8  2DDA               	goto	u2680
  4184  05D9                     u2681:
  4185  05D9  2DB5               	goto	l895
  4186  05DA                     u2680:
  4187  05DA  2DDB               	goto	l3709
  4188                           	
  4189  05DB                     l896:	
  4190                           	line	502
  4191                           	
  4192  05DB                     l3709:	
  4193                           ;master.c: 501: }
  4194                           ;master.c: 502: return (data);
  4195  05DB  0876               	movf	(spi_byte@data),w
  4196  05DC  2DDD               	goto	l901
  4197                           	
  4198  05DD                     l3711:	
  4199                           	line	503
  4200                           	
  4201  05DD                     l901:	
  4202  05DD  0008               	return
  4203                           	opt stack 0
  4204                           GLOBAL	__end_of_spi_byte
  4205  05DE                     	__end_of_spi_byte:
  4206 ;; =============== function _spi_byte ends ============
  4207                           
  4208                           	signat	_spi_byte,4217
  4209                           	global	_delay_1ms
  4210                           psect	text489,local,class=CODE,delta=2
  4211                           global __ptext489
  4212  05DE                     __ptext489:
  4213                           
  4214 ;; *************** function _delay_1ms *****************
  4215 ;; Defined at:
  4216 ;;		line 631 in file "C:\Users\Crow\Desktop\si4463_Vc2\SLAVE_MOD\master.c"
  4217 ;; Parameters:    Size  Location     Type
  4218 ;;  delay_time      2    4[COMMON] unsigned int 
  4219 ;; Auto vars:     Size  Location     Type
  4220 ;;  i               2    6[COMMON] unsigned int 
  4221 ;; Return value:  Size  Location     Type
  4222 ;;		None               void
  4223 ;; Registers used:
  4224 ;;		wreg, status,2, status,0
  4225 ;; Tracked objects:
  4226 ;;		On entry : 0/0
  4227 ;;		On exit  : 0/0
  4228 ;;		Unchanged: 0/0
  4229 ;; Data sizes:     COMMON   BANK0   BANK1   BANK2
  4230 ;;      Params:         2       0       0       0
  4231 ;;      Locals:         2       0       0       0
  4232 ;;      Temps:          0       0       0       0
  4233 ;;      Totals:         4       0       0       0
  4234 ;;Total ram usage:        4 bytes
  4235 ;; Hardware stack levels used:    1
  4236 ;; Hardware stack levels required when called:    1
  4237 ;; This function calls:
  4238 ;;		Nothing
  4239 ;; This function is called by:
  4240 ;;		_main
  4241 ;;		_sdn_reset
  4242 ;; This function uses a non-reentrant model
  4243 ;;
  4244                           psect	text489
  4245                           	file	"C:\Users\Crow\Desktop\si4463_Vc2\SLAVE_MOD\master.c"
  4246                           	line	631
  4247                           	global	__size_of_delay_1ms
  4248  002B                     	__size_of_delay_1ms	equ	__end_of_delay_1ms-_delay_1ms
  4249                           	
  4250  05DE                     _delay_1ms:	
  4251                           	opt	stack 6
  4252                           ; Regs used in _delay_1ms: [wreg+status,2+status,0]
  4253                           	line	633
  4254                           	
  4255  05DE                     l3601:	
  4256                           ;master.c: 632: unsigned int i;
  4257                           ;master.c: 633: while(delay_time !=0)
  4258  05DE  2E01               	goto	l3615
  4259                           	
  4260  05DF                     l953:	
  4261                           	line	635
  4262                           	
  4263  05DF                     l3603:	
  4264                           ;master.c: 634: {
  4265                           ;master.c: 635: for (i =380; i!=0; i--)
  4266  05DF  307C               	movlw	low(017Ch)
  4267  05E0  00F6               	movwf	(delay_1ms@i)
  4268  05E1  3001               	movlw	high(017Ch)
  4269  05E2  00F7               	movwf	((delay_1ms@i))+1
  4270                           	
  4271  05E3                     l3605:	
  4272  05E3  0877               	movf	((delay_1ms@i+1)),w
  4273  05E4  0476               	iorwf	((delay_1ms@i)),w
  4274  05E5  1D03               	skipz
  4275  05E6  2DE8               	goto	u2571
  4276  05E7  2DE9               	goto	u2570
  4277  05E8                     u2571:
  4278  05E8  2DEB               	goto	l954
  4279  05E9                     u2570:
  4280  05E9  2DFA               	goto	l3613
  4281                           	
  4282  05EA                     l3607:	
  4283  05EA  2DFA               	goto	l3613
  4284                           	line	636
  4285                           	
  4286  05EB                     l954:	
  4287                           	line	637
  4288                           # 637 "C:\Users\Crow\Desktop\si4463_Vc2\SLAVE_MOD\master.c"
  4289  05EB  0000               NOP ;#
  4290                           	line	638
  4291                           # 638 "C:\Users\Crow\Desktop\si4463_Vc2\SLAVE_MOD\master.c"
  4292  05EC  0000               NOP ;#
  4293                           psect	text489
  4294                           	line	635
  4295                           	
  4296  05ED                     l3609:	
  4297  05ED  3001               	movlw	low(01h)
  4298  05EE  02F6               	subwf	(delay_1ms@i),f
  4299  05EF  3000               	movlw	high(01h)
  4300  05F0  1C03               	skipc
  4301  05F1  03F7               	decf	(delay_1ms@i+1),f
  4302  05F2  02F7               	subwf	(delay_1ms@i+1),f
  4303                           	
  4304  05F3                     l3611:	
  4305  05F3  0877               	movf	((delay_1ms@i+1)),w
  4306  05F4  0476               	iorwf	((delay_1ms@i)),w
  4307  05F5  1D03               	skipz
  4308  05F6  2DF8               	goto	u2581
  4309  05F7  2DF9               	goto	u2580
  4310  05F8                     u2581:
  4311  05F8  2DEB               	goto	l954
  4312  05F9                     u2580:
  4313  05F9  2DFA               	goto	l3613
  4314                           	
  4315  05FA                     l955:	
  4316                           	line	640
  4317                           	
  4318  05FA                     l3613:	
  4319                           ;master.c: 639: }
  4320                           ;master.c: 640: delay_time--;
  4321  05FA  3001               	movlw	low(01h)
  4322  05FB  02F4               	subwf	(delay_1ms@delay_time),f
  4323  05FC  3000               	movlw	high(01h)
  4324  05FD  1C03               	skipc
  4325  05FE  03F5               	decf	(delay_1ms@delay_time+1),f
  4326  05FF  02F5               	subwf	(delay_1ms@delay_time+1),f
  4327  0600  2E01               	goto	l3615
  4328                           	line	641
  4329                           	
  4330  0601                     l952:	
  4331                           	line	633
  4332                           	
  4333  0601                     l3615:	
  4334  0601  0875               	movf	((delay_1ms@delay_time+1)),w
  4335  0602  0474               	iorwf	((delay_1ms@delay_time)),w
  4336  0603  1D03               	skipz
  4337  0604  2E06               	goto	u2591
  4338  0605  2E07               	goto	u2590
  4339  0606                     u2591:
  4340  0606  2DDF               	goto	l3603
  4341  0607                     u2590:
  4342  0607  2E08               	goto	l957
  4343                           	
  4344  0608                     l956:	
  4345                           	line	642
  4346                           	
  4347  0608                     l957:	
  4348  0608  0008               	return
  4349                           	opt stack 0
  4350                           GLOBAL	__end_of_delay_1ms
  4351  0609                     	__end_of_delay_1ms:
  4352 ;; =============== function _delay_1ms ends ============
  4353                           
  4354                           	signat	_delay_1ms,4216
  4355                           	global	_timer1_init
  4356                           psect	text490,local,class=CODE,delta=2
  4357                           global __ptext490
  4358  06E9                     __ptext490:
  4359                           
  4360 ;; *************** function _timer1_init *****************
  4361 ;; Defined at:
  4362 ;;		line 681 in file "C:\Users\Crow\Desktop\si4463_Vc2\SLAVE_MOD\master.c"
  4363 ;; Parameters:    Size  Location     Type
  4364 ;;		None
  4365 ;; Auto vars:     Size  Location     Type
  4366 ;;		None
  4367 ;; Return value:  Size  Location     Type
  4368 ;;		None               void
  4369 ;; Registers used:
  4370 ;;		wreg
  4371 ;; Tracked objects:
  4372 ;;		On entry : 0/0
  4373 ;;		On exit  : 0/0
  4374 ;;		Unchanged: 0/0
  4375 ;; Data sizes:     COMMON   BANK0   BANK1   BANK2
  4376 ;;      Params:         0       0       0       0
  4377 ;;      Locals:         0       0       0       0
  4378 ;;      Temps:          0       0       0       0
  4379 ;;      Totals:         0       0       0       0
  4380 ;;Total ram usage:        0 bytes
  4381 ;; Hardware stack levels used:    1
  4382 ;; Hardware stack levels required when called:    1
  4383 ;; This function calls:
  4384 ;;		Nothing
  4385 ;; This function is called by:
  4386 ;;		_main
  4387 ;; This function uses a non-reentrant model
  4388 ;;
  4389                           psect	text490
  4390                           	file	"C:\Users\Crow\Desktop\si4463_Vc2\SLAVE_MOD\master.c"
  4391                           	line	681
  4392                           	global	__size_of_timer1_init
  4393  000E                     	__size_of_timer1_init	equ	__end_of_timer1_init-_timer1_init
  4394                           	
  4395  06E9                     _timer1_init:	
  4396                           	opt	stack 6
  4397                           ; Regs used in _timer1_init: [wreg]
  4398                           	line	682
  4399                           	
  4400  06E9                     l3597:	
  4401                           ;master.c: 682: T1CON = 0x31;
  4402  06E9  3031               	movlw	(031h)
  4403  06EA  1283               	bcf	status, 5	;RP0=0, select bank0
  4404  06EB  1303               	bcf	status, 6	;RP1=0, select bank0
  4405  06EC  0090               	movwf	(16)	;volatile
  4406                           	line	683
  4407                           	
  4408  06ED                     l3599:	
  4409                           ;master.c: 683: TMR1IE = 1;
  4410  06ED  1683               	bsf	status, 5	;RP0=1, select bank1
  4411  06EE  1303               	bcf	status, 6	;RP1=0, select bank1
  4412  06EF  140C               	bsf	(1120/8)^080h,(1120)&7
  4413                           	line	684
  4414                           ;master.c: 684: TMR1L = 0x78;
  4415  06F0  3078               	movlw	(078h)
  4416  06F1  1283               	bcf	status, 5	;RP0=0, select bank0
  4417  06F2  1303               	bcf	status, 6	;RP1=0, select bank0
  4418  06F3  008E               	movwf	(14)	;volatile
  4419                           	line	685
  4420                           ;master.c: 685: TMR1H = 0xec;
  4421  06F4  30EC               	movlw	(0ECh)
  4422  06F5  008F               	movwf	(15)	;volatile
  4423                           	line	687
  4424                           	
  4425  06F6                     l974:	
  4426  06F6  0008               	return
  4427                           	opt stack 0
  4428                           GLOBAL	__end_of_timer1_init
  4429  06F7                     	__end_of_timer1_init:
  4430 ;; =============== function _timer1_init ends ============
  4431                           
  4432                           	signat	_timer1_init,88
  4433                           	global	_nop_10
  4434                           psect	text491,local,class=CODE,delta=2
  4435                           global __ptext491
  4436  06F7                     __ptext491:
  4437                           
  4438 ;; *************** function _nop_10 *****************
  4439 ;; Defined at:
  4440 ;;		line 667 in file "C:\Users\Crow\Desktop\si4463_Vc2\SLAVE_MOD\master.c"
  4441 ;; Parameters:    Size  Location     Type
  4442 ;;		None
  4443 ;; Auto vars:     Size  Location     Type
  4444 ;;		None
  4445 ;; Return value:  Size  Location     Type
  4446 ;;		None               void
  4447 ;; Registers used:
  4448 ;;		None
  4449 ;; Tracked objects:
  4450 ;;		On entry : 0/0
  4451 ;;		On exit  : 0/0
  4452 ;;		Unchanged: 0/0
  4453 ;; Data sizes:     COMMON   BANK0   BANK1   BANK2
  4454 ;;      Params:         0       0       0       0
  4455 ;;      Locals:         0       0       0       0
  4456 ;;      Temps:          0       0       0       0
  4457 ;;      Totals:         0       0       0       0
  4458 ;;Total ram usage:        0 bytes
  4459 ;; Hardware stack levels used:    1
  4460 ;; Hardware stack levels required when called:    1
  4461 ;; This function calls:
  4462 ;;		Nothing
  4463 ;; This function is called by:
  4464 ;;		_main
  4465 ;; This function uses a non-reentrant model
  4466 ;;
  4467                           psect	text491
  4468                           	file	"C:\Users\Crow\Desktop\si4463_Vc2\SLAVE_MOD\master.c"
  4469                           	line	667
  4470                           	global	__size_of_nop_10
  4471  000B                     	__size_of_nop_10	equ	__end_of_nop_10-_nop_10
  4472                           	
  4473  06F7                     _nop_10:	
  4474                           	opt	stack 6
  4475                           ; Regs used in _nop_10: []
  4476                           	line	668
  4477                           	
  4478  06F7                     l3595:	
  4479                           # 668 "C:\Users\Crow\Desktop\si4463_Vc2\SLAVE_MOD\master.c"
  4480  06F7  0000               NOP ;#
  4481                           	line	669
  4482                           # 669 "C:\Users\Crow\Desktop\si4463_Vc2\SLAVE_MOD\master.c"
  4483  06F8  0000               NOP ;#
  4484                           	line	670
  4485                           # 670 "C:\Users\Crow\Desktop\si4463_Vc2\SLAVE_MOD\master.c"
  4486  06F9  0000               NOP ;#
  4487                           	line	671
  4488                           # 671 "C:\Users\Crow\Desktop\si4463_Vc2\SLAVE_MOD\master.c"
  4489  06FA  0000               NOP ;#
  4490                           	line	672
  4491                           # 672 "C:\Users\Crow\Desktop\si4463_Vc2\SLAVE_MOD\master.c"
  4492  06FB  0000               NOP ;#
  4493                           	line	673
  4494                           # 673 "C:\Users\Crow\Desktop\si4463_Vc2\SLAVE_MOD\master.c"
  4495  06FC  0000               NOP ;#
  4496                           	line	674
  4497                           # 674 "C:\Users\Crow\Desktop\si4463_Vc2\SLAVE_MOD\master.c"
  4498  06FD  0000               NOP ;#
  4499                           	line	675
  4500                           # 675 "C:\Users\Crow\Desktop\si4463_Vc2\SLAVE_MOD\master.c"
  4501  06FE  0000               NOP ;#
  4502                           	line	676
  4503                           # 676 "C:\Users\Crow\Desktop\si4463_Vc2\SLAVE_MOD\master.c"
  4504  06FF  0000               NOP ;#
  4505                           	line	677
  4506                           # 677 "C:\Users\Crow\Desktop\si4463_Vc2\SLAVE_MOD\master.c"
  4507  0700  0000               NOP ;#
  4508                           psect	text491
  4509                           	line	678
  4510                           	
  4511  0701                     l971:	
  4512  0701  0008               	return
  4513                           	opt stack 0
  4514                           GLOBAL	__end_of_nop_10
  4515  0702                     	__end_of_nop_10:
  4516 ;; =============== function _nop_10 ends ============
  4517                           
  4518                           	signat	_nop_10,88
  4519                           	global	_port_init
  4520                           psect	text492,local,class=CODE,delta=2
  4521                           global __ptext492
  4522  06D9                     __ptext492:
  4523                           
  4524 ;; *************** function _port_init *****************
  4525 ;; Defined at:
  4526 ;;		line 620 in file "C:\Users\Crow\Desktop\si4463_Vc2\SLAVE_MOD\master.c"
  4527 ;; Parameters:    Size  Location     Type
  4528 ;;		None
  4529 ;; Auto vars:     Size  Location     Type
  4530 ;;		None
  4531 ;; Return value:  Size  Location     Type
  4532 ;;		None               void
  4533 ;; Registers used:
  4534 ;;		wreg, status,2
  4535 ;; Tracked objects:
  4536 ;;		On entry : 0/0
  4537 ;;		On exit  : 0/0
  4538 ;;		Unchanged: 0/0
  4539 ;; Data sizes:     COMMON   BANK0   BANK1   BANK2
  4540 ;;      Params:         0       0       0       0
  4541 ;;      Locals:         0       0       0       0
  4542 ;;      Temps:          0       0       0       0
  4543 ;;      Totals:         0       0       0       0
  4544 ;;Total ram usage:        0 bytes
  4545 ;; Hardware stack levels used:    1
  4546 ;; Hardware stack levels required when called:    1
  4547 ;; This function calls:
  4548 ;;		Nothing
  4549 ;; This function is called by:
  4550 ;;		_main
  4551 ;; This function uses a non-reentrant model
  4552 ;;
  4553                           psect	text492
  4554                           	file	"C:\Users\Crow\Desktop\si4463_Vc2\SLAVE_MOD\master.c"
  4555                           	line	620
  4556                           	global	__size_of_port_init
  4557  0010                     	__size_of_port_init	equ	__end_of_port_init-_port_init
  4558                           	
  4559  06D9                     _port_init:	
  4560                           	opt	stack 6
  4561                           ; Regs used in _port_init: [wreg+status,2]
  4562                           	line	621
  4563                           	
  4564  06D9                     l3585:	
  4565                           ;master.c: 621: ANSEL=0X00;
  4566  06D9  1283               	bcf	status, 5	;RP0=0, select bank2
  4567  06DA  1703               	bsf	status, 6	;RP1=1, select bank2
  4568  06DB  019E               	clrf	(286)^0100h	;volatile
  4569                           	line	622
  4570                           ;master.c: 622: ANSELH=0X00;
  4571  06DC  019F               	clrf	(287)^0100h	;volatile
  4572                           	line	623
  4573                           	
  4574  06DD                     l3587:	
  4575                           ;master.c: 623: WPUA=0X17;
  4576  06DD  3017               	movlw	(017h)
  4577  06DE  1683               	bsf	status, 5	;RP0=1, select bank1
  4578  06DF  1303               	bcf	status, 6	;RP1=0, select bank1
  4579  06E0  0095               	movwf	(149)^080h	;volatile
  4580                           	line	624
  4581                           	
  4582  06E1                     l3589:	
  4583                           ;master.c: 624: IOCA=0X00;
  4584  06E1  0196               	clrf	(150)^080h	;volatile
  4585                           	line	625
  4586                           	
  4587  06E2                     l3591:	
  4588                           ;master.c: 625: TRISA=00000000;
  4589  06E2  0185               	clrf	(133)^080h	;volatile
  4590                           	line	626
  4591                           	
  4592  06E3                     l3593:	
  4593                           ;master.c: 626: TRISC=00000011;
  4594  06E3  3009               	movlw	(09h)
  4595  06E4  0087               	movwf	(135)^080h	;volatile
  4596                           	line	627
  4597                           ;master.c: 627: PORTC=00010000;
  4598  06E5  1283               	bcf	status, 5	;RP0=0, select bank0
  4599  06E6  1303               	bcf	status, 6	;RP1=0, select bank0
  4600  06E7  0187               	clrf	(7)	;volatile
  4601                           	line	628
  4602                           	
  4603  06E8                     l949:	
  4604  06E8  0008               	return
  4605                           	opt stack 0
  4606                           GLOBAL	__end_of_port_init
  4607  06E9                     	__end_of_port_init:
  4608 ;; =============== function _port_init ends ============
  4609                           
  4610                           	signat	_port_init,88
  4611                           	global	_ISR_timer
  4612                           psect	text493,local,class=CODE,delta=2
  4613                           global __ptext493
  4614  0574                     __ptext493:
  4615                           
  4616 ;; *************** function _ISR_timer *****************
  4617 ;; Defined at:
  4618 ;;		line 690 in file "C:\Users\Crow\Desktop\si4463_Vc2\SLAVE_MOD\master.c"
  4619 ;; Parameters:    Size  Location     Type
  4620 ;;		None
  4621 ;; Auto vars:     Size  Location     Type
  4622 ;;		None
  4623 ;; Return value:  Size  Location     Type
  4624 ;;		None               void
  4625 ;; Registers used:
  4626 ;;		wreg, status,2
  4627 ;; Tracked objects:
  4628 ;;		On entry : 0/0
  4629 ;;		On exit  : 0/0
  4630 ;;		Unchanged: 0/0
  4631 ;; Data sizes:     COMMON   BANK0   BANK1   BANK2
  4632 ;;      Params:         0       0       0       0
  4633 ;;      Locals:         0       0       0       0
  4634 ;;      Temps:          4       0       0       0
  4635 ;;      Totals:         4       0       0       0
  4636 ;;Total ram usage:        4 bytes
  4637 ;; Hardware stack levels used:    1
  4638 ;; This function calls:
  4639 ;;		Nothing
  4640 ;; This function is called by:
  4641 ;;		Interrupt level 1
  4642 ;; This function uses a non-reentrant model
  4643 ;;
  4644                           psect	text493
  4645                           	file	"C:\Users\Crow\Desktop\si4463_Vc2\SLAVE_MOD\master.c"
  4646                           	line	690
  4647                           	global	__size_of_ISR_timer
  4648  0037                     	__size_of_ISR_timer	equ	__end_of_ISR_timer-_ISR_timer
  4649                           	
  4650  0574                     _ISR_timer:	
  4651                           	opt	stack 1
  4652                           ; Regs used in _ISR_timer: [wreg+status,2]
  4653                           psect	intentry,class=CODE,delta=2
  4654                           global __pintentry
  4655  0004                     __pintentry:
  4656                           global interrupt_function
  4657  0004                     interrupt_function:
  4658                           	global saved_w
  4659  007E                     	saved_w	set	btemp+0
  4660  0004  00FE               	movwf	saved_w
  4661  0005  0E03               	swapf	status,w
  4662  0006  00F0               	movwf	(??_ISR_timer+0)
  4663  0007  0804               	movf	fsr0,w
  4664  0008  00F1               	movwf	(??_ISR_timer+1)
  4665  0009  080A               	movf	pclath,w
  4666  000A  00F2               	movwf	(??_ISR_timer+2)
  4667  000B  1283               	bcf	status, 5	;RP0=0, select bank0
  4668  000C  1303               	bcf	status, 6	;RP1=0, select bank0
  4669  000D  087F               	movf	btemp+1,w
  4670  000E  00F3               	movwf	(??_ISR_timer+3)
  4671  000F  118A  2D74         	ljmp	_ISR_timer
  4672                           psect	text493
  4673                           	line	691
  4674                           	
  4675  0574                     i1l3723:	
  4676                           ;master.c: 691: if(TMR1IF)
  4677  0574  1C0C               	btfss	(96/8),(96)&7
  4678  0575  2D77               	goto	u271_21
  4679  0576  2D78               	goto	u271_20
  4680  0577                     u271_21:
  4681  0577  2DA0               	goto	i1l980
  4682  0578                     u271_20:
  4683                           	line	694
  4684                           	
  4685  0578                     i1l3725:	
  4686                           ;master.c: 692: {
  4687                           ;master.c: 694: TMR1L = 0x78;
  4688  0578  3078               	movlw	(078h)
  4689  0579  008E               	movwf	(14)	;volatile
  4690                           	line	695
  4691                           ;master.c: 695: TMR1H = 0xec;
  4692  057A  30EC               	movlw	(0ECh)
  4693  057B  008F               	movwf	(15)	;volatile
  4694                           	line	697
  4695                           ;master.c: 697: rf_timeout++;
  4696  057C  3001               	movlw	low(01h)
  4697  057D  07CF               	addwf	(_rf_timeout),f
  4698  057E  1803               	skipnc
  4699  057F  0AD0               	incf	(_rf_timeout+1),f
  4700  0580  3000               	movlw	high(01h)
  4701  0581  07D0               	addwf	(_rf_timeout+1),f
  4702                           	line	698
  4703                           ;master.c: 698: if(rf_timeout == 20)
  4704  0582  3014               	movlw	014h
  4705  0583  064F               	xorwf	(_rf_timeout),w
  4706  0584  0450               	iorwf	(_rf_timeout+1),w
  4707  0585  1D03               	skipz
  4708  0586  2D88               	goto	u272_21
  4709  0587  2D89               	goto	u272_20
  4710  0588                     u272_21:
  4711  0588  2D8D               	goto	i1l3731
  4712  0589                     u272_20:
  4713                           	line	700
  4714                           	
  4715  0589                     i1l3727:	
  4716                           ;master.c: 699: {
  4717                           ;master.c: 700: rf_timeout=0;
  4718  0589  01CF               	clrf	(_rf_timeout)
  4719  058A  01D0               	clrf	(_rf_timeout+1)
  4720                           	line	701
  4721                           	
  4722  058B                     i1l3729:	
  4723                           ;master.c: 701: Flag.rf_reach_timeout = 1;
  4724  058B  1551               	bsf	(_Flag),2
  4725  058C  2D8D               	goto	i1l3731
  4726                           	line	702
  4727                           	
  4728  058D                     i1l978:	
  4729                           	line	704
  4730                           	
  4731  058D                     i1l3731:	
  4732                           ;master.c: 702: }
  4733                           ;master.c: 704: count_1hz++;
  4734  058D  3001               	movlw	low(01h)
  4735  058E  07CD               	addwf	(_count_1hz),f
  4736  058F  1803               	skipnc
  4737  0590  0ACE               	incf	(_count_1hz+1),f
  4738  0591  3000               	movlw	high(01h)
  4739  0592  07CE               	addwf	(_count_1hz+1),f
  4740                           	line	705
  4741                           	
  4742  0593                     i1l3733:	
  4743                           ;master.c: 705: if(count_1hz==60)
  4744  0593  303C               	movlw	03Ch
  4745  0594  064D               	xorwf	(_count_1hz),w
  4746  0595  044E               	iorwf	(_count_1hz+1),w
  4747  0596  1D03               	skipz
  4748  0597  2D99               	goto	u273_21
  4749  0598  2D9A               	goto	u273_20
  4750  0599                     u273_21:
  4751  0599  2D9E               	goto	i1l3739
  4752  059A                     u273_20:
  4753                           	line	707
  4754                           	
  4755  059A                     i1l3735:	
  4756                           ;master.c: 706: {
  4757                           ;master.c: 707: count_1hz=0;
  4758  059A  01CD               	clrf	(_count_1hz)
  4759  059B  01CE               	clrf	(_count_1hz+1)
  4760                           	line	708
  4761                           	
  4762  059C                     i1l3737:	
  4763                           ;master.c: 708: Flag.reach_1s = 1;
  4764  059C  1451               	bsf	(_Flag),0
  4765  059D  2D9E               	goto	i1l3739
  4766                           	line	710
  4767                           	
  4768  059E                     i1l979:	
  4769                           	line	712
  4770                           	
  4771  059E                     i1l3739:	
  4772                           ;master.c: 710: }
  4773                           ;master.c: 712: TMR1IF=0;
  4774  059E  100C               	bcf	(96/8),(96)&7
  4775  059F  2DA0               	goto	i1l980
  4776                           	line	713
  4777                           	
  4778  05A0                     i1l977:	
  4779                           	line	715
  4780                           	
  4781  05A0                     i1l980:	
  4782  05A0  0873               	movf	(??_ISR_timer+3),w
  4783  05A1  00FF               	movwf	btemp+1
  4784  05A2  0872               	movf	(??_ISR_timer+2),w
  4785  05A3  008A               	movwf	pclath
  4786  05A4  0871               	movf	(??_ISR_timer+1),w
  4787  05A5  0084               	movwf	fsr0
  4788  05A6  0E70               	swapf	(??_ISR_timer+0)^0FFFFFF80h,w
  4789  05A7  0083               	movwf	status
  4790  05A8  0EFE               	swapf	saved_w,f
  4791  05A9  0E7E               	swapf	saved_w,w
  4792  05AA  0009               	retfie
  4793                           	opt stack 0
  4794                           GLOBAL	__end_of_ISR_timer
  4795  05AB                     	__end_of_ISR_timer:
  4796 ;; =============== function _ISR_timer ends ============
  4797                           
  4798                           	signat	_ISR_timer,88
  4799                           psect	text494,local,class=CODE,delta=2
  4800                           global __ptext494
  4801  0000                     __ptext494:
  4802                           	global	btemp
  4803  007E                     	btemp set 07Eh
  4804                           
  4805                           	DABS	1,126,2	;btemp
  4806                           	global	wtemp0
  4807  007E                     	wtemp0 set btemp


HI-TECH Software PICC Macro Assembler V9.82 build 9453 
Symbol Table                                                                                   Fri Nov 13 23:36:56 2020

                             pc 0002                              _RD 0C60                              _WR 0C61  
                            fsr 0004                             l900 05CF                             l901 05DD  
                           l910 0573                             l904 054A                             l920 048A  
                           l913 06B5                             l905 0541                             l921 0499  
                           l906 0550                             l922 04B6                             l850 045B  
                           l907 056C                             l923 04A4                             l851 042A  
                           l940 053A                             l908 0554                             l924 04BC  
                           l916 0477                             l852 043D                             l941 053B  
                           l909 0572                             l861 0286                             l925 04BD  
                           l917 046E                             l853 0456                             l918 047E  
                           l870 064E                             l854 045A                             l919 0493  
                           l855 045F                             l847 0402                             l952 0601  
                           l960 061A                             l944 04E0                             l936 050B  
                           l864 06C8                             l856 0462                             l848 0461  
                           l953 05DF                             l961 062D                             l945 04F3  
                           l937 0502                             l857 0463                             l849 0460  
                           l954 05EB                             l962 062E                             l946 04FD  
                           l938 0511                             l882 0686                             l858 0463  
                           l971 0701                             l955 05FA                             l939 0523  
                           l867 066A                             l956 0608                             l949 06E8  
                           l957 0608                             l965 0694                             l885 06D8  
                           l974 06F6                             l966 068A                             l895 05B5  
                           l967 069F                             l896 05DB                             l968 069F  
                           l897 05BD                             l898 05C1                             l899 05CA  
                           _GIE 005F                             _RC0 0038                             _RC1 0039  
                           _RC2 003A                             _RC3 003B                             _RC5 003D  
                           _RC6 003E                             _RC7 003F                  clr_interrupt@p 005D  
                           fsr0 0004                             indf 0000                _RF_POWER_UP_data 031E  
                          l4001 01D4                            l4011 01FE                            l4003 01D8  
                          l4021 0211                            l4013 0204                            l4005 01E0  
                          l4101 0635                            l4031 022C                            l4023 0215  
                          l4015 0208                            l4007 01EA                            l4111 0645  
                          l4103 0638                            l4041 023F                            l4033 0232  
                          l4025 0216                            l4017 020C                            l4009 01F4  
                          l4113 0646                            l4105 063C                            l4121 0673  
                          l4201 043D                            l4051 0252                            l4043 0243  
                          l4035 0236                            l4027 021A                            l4019 020D  
                          l4107 063D                            l4123 0674                            l4115 066B  
                          l4131 0655                            l4203 0443                            l4211 0456  
                          l4061 0266                            l4053 0256                            l4045 0247  
                          l4037 023A                            l4029 0222                            l4109 0641  
                          l4125 0675                            l4117 0671                            l4133 0656  
                          l4141 06C9                            l4205 0449                            l4213 045B  
                          l4063 026A                            l4055 025A                            l4047 024B  
                          l4039 023B                            l4071 06C0                            l4127 067E  
                          l4119 0672                            l4135 0657                            l4143 06CC  
                          l4207 044B                            l4151 03E3                            l3601 05DE  
                          l4065 0272                            l4057 025E                            l4049 024F  
                          l4081 047E                            l4073 0468                            l4137 0658  
                          l4129 064F                            l4209 0452                            l4161 03F0  
                          l4153 03E6                            l4145 03D7                            l3611 05F3  
                          l3603 05DF                            l4067 027C                            l4059 0262  
                          l4091 04A0                            l4083 0486                            l4075 046C  
                          l4139 0660                            l4171 03FE                            l4163 03F1  
                          l4155 03E9                            l4147 03DB                            l3613 05FA  
                          l3605 05E3                            l3701 05C8                            l4069 06B6  
                          l4093 04A4                            l4085 048A                            l4077 046E  
                          l4181 040F                            l4173 03FF                            l4165 03F4  
                          l4157 03EC                            l4149 03DC                            l3607 05EA  
                          l3615 0601                            l3711 05DD                            l3703 05CA  
                          l4095 04B1                            l4087 0493                            l4079 0477  
                          l4191 0422                            l4183 0415                            l4175 0402  
                          l4167 03F7                            l4159 03ED                            l3609 05ED  
                          l3705 05CF                            l3721 0620                            l3713 0609  
                          l3801 0530                            l4097 04B6                            l4089 049C  
                          l4193 0429                            l4185 0418                            l4177 0408  
                          l4169 03FA                            l3707 05D4                            l3715 060B  
                          l3803 0534                            l3811 0554                            l4099 062F  
                          l4195 042A                            l4187 041B                            l4179 040C  
                          l3709 05DB                            l3717 0619                            l3741 0687  
                          l3813 0561                            l3805 053F                            l3901 00D2  
                          l3821 0031                            l4197 0432                            l4189 041E  
                          l3591 06E2                            l3719 061A                            l3743 068A  
                          l3751 04C1                            l3815 0565                            l3807 0541  
                          l3911 00F3                            l3903 00D6                            l3831 0044  
                          l3823 0039                            l4199 0436                            l3593 06E3  
                          l3585 06D9                            l3745 068D                            l3761 04D7  
                          l3753 04C8                            l3817 056C                            l3809 054A  
                          l3921 010D                            l3913 00FB                            l3905 00DE  
                          l3841 005E                            l3833 0048                            l3825 003F  
                          l3587 06DD                            l3595 06F7                            l3691 05B4  
                          l3747 0694                            l3771 04ED                            l3763 04D8  
                          l3755 04D2                            l3931 0137                            l3923 010E  
                          l3915 0101                            l3907 00E4                            l3851 007E  
                          l3843 0062                            l3835 0050                            l3827 0040  
                          l3819 0013                            l3589 06E1                            l3597 06E9  
                          l3693 05B9                            l3773 04F6                            l3765 04DF  
                          l3757 04D5                            l3749 04BE                            l3781 06B3  
                          l3941 013C                            l3933 0138                            l3925 010F  
                          l3917 0105                            l3909 00E8                            l3861 008C  
                          l3853 0082                            l3845 006A                            l3837 0056  
                          l3829 0043                            l3599 06ED                            l3695 05C1  
                          l3687 05AC                            l3767 04E0                            l3759 04D6  
                          l3783 06B5                            l3775 06A0                            l3791 0514  
                          l3951 014D                            l3943 013D                            l3935 0139  
                          l3927 0110                            l3919 0109                            l3871 0097  
                          l3863 0090                            l3855 0083                            l3847 0074  
                          l3839 005A                            l3697 05C3                            l3689 05AD  
                          l3769 04E9                            l3777 06A5                            l3793 0518  
                          l3785 04FE                            l3961 015B                            l3953 0151  
                          l3945 013E                            l3937 013A                            l3929 012A  
                          l3881 00AE                            l3873 0098                            l3865 0094  
                          l3857 0087                            l3849 007A                            l3699 05C4  
                          l3779 06B0                            l3795 051B                            l3787 0502  
                          l3971 0160                            l3963 015C                            l3955 0155  
                          l3947 013F                            l3939 013B                            l3891 00BB  
                          l3883 00AF                            l3875 00A0                            l3867 0095  
                          l3859 008B                            l3797 0522                            l3789 050B  
                          l3981 0187                            l3973 0161                            l3965 015D  
                          l3957 0159                            l3949 0147                            l3893 00C4  
                          l3885 00B2                            l3877 00A6                            l3869 0096  
                          l3799 0523                            l3991 01B9                            l3983 0191  
                          l3975 0169                            l3967 015E                            l3959 015A  
                          l3895 00CA                            l3887 00B6                            l3879 00AA  
                          l3993 01C3                            l3985 019B                            l3977 0173  
                          l3969 015F                            l3897 00CE                            l3889 00BA  
                          l3995 01C9                            l3987 01A5                            l3979 017D  
                          l3899 00D1                            l3997 01CD                            l3989 01AF  
                          l3999 01D0                            _IOCA 0096                            u2700 062D  
                          u2701 062C                            u2800 0550                            u2705 0629  
                          u2801 054F                            u2570 05E9                            u2650 05B3  
                          u2810 0572                            u2571 05E8                            u2651 05B2  
                          u2811 0571                            u2580 05F9                            u2660 05B9  
                          u2740 069E                            u2820 047D                            u2900 0443  
                          u2581 05F8                            u2661 05B8                            u2741 069D  
                          u2821 047C                            u2901 0442                            u2590 0607  
                          u2670 05C8                            u2750 04DE                            u2830 0499  
                          u2910 0449                            u2591 0606                            u2671 05C7  
                          u2751 04DD                            u2831 0498                            u2911 0448  
                          u2680 05DA                            u2760 04F3                            u2840 04BC  
                          u2681 05D9                            u2745 069A                            u2761 04F2  
                          u2841 04BB                            u2690 0618                            u2770 0511  
                          u2850 0408                            u2691 0617                            u2771 0510  
                          u2851 0407                            u2780 0521                            u2860 040C  
                          u2781 0520                            u2861 040B                            u2790 053A  
                          u2870 0415                            u2695 0614                            u2791 0539  
                          u2871 0414                            u2880 0428                            u2881 0427  
                          u2890 043C                            u2891 043B                            _WREN 0C62  
                          _WPUA 0095        _BCR_NCO_OFFSET_2_12_data 0335                            _Flag 0051  
                  spi_byte@data 0076                            _main 03D7                            btemp 007E  
                          start 0011                 ??_clr_interrupt 005C             spi_read@data_length 0059  
                         ?_main 0070                           _EEADR 010D                           _CARRY 0018  
                         _ANSEL 011E                           _T1CON 0010                           i1l980 05A0  
                         i1l977 05A0                           i1l978 058D                           i1l979 059E  
                         _TMR1H 000F                           _TMR1L 000E                           _PORTC 0007  
   _RF_MODEM_RAW_CONTROL_8_data 03A1                           _TRISA 0085                           _TRISC 0087  
            __size_of_ISR_timer 0037             spi_read@api_command 0057                           main@i 006E  
                         pclath 000A                 ??_spi_read_fifo 0079                 __end_of_rx_init 06D9  
                         status 0003                           wtemp0 007E            __size_of_delay_x10ms 0019  
                  __end_of_main 0465              spi_write@tx_length 0054                          ??_main 006C  
              _COE7_7_0_12_data 0365                          _EEDATA 010C                          _EECON1 018C  
                        _EECON2 018D                          _ANSELH 011F                          i1l3731 058D  
                        i1l3723 0574                          i1l3733 0593                          i1l3725 0578  
                        i1l3735 059A                          i1l3727 0589                          i1l3737 059C  
                        i1l3729 058B                          i1l3739 059E                          _INTCON 000B  
                        u271_20 0578                          u271_21 0577                          u272_20 0589  
                        u272_21 0588                          u273_20 059A                          u273_21 0599  
          __size_of_SI4463_init 0274                          _OSCCON 008F                          _TMR1IE 0460  
                        _TMR1IF 0060                          _WDTCON 0097               __end_of_ISR_timer 05AB  
       _AGC_WINDOW_SIZE_12_data 0325                    ?_timer1_init 0070      SI4463_init@app_command_buf 0058  
                        _nop_10 06F7                          _rx_buf 0020                          clrloop 070D  
                        saved_w 007E                __end_of_spi_byte 05DE                __end_of_spi_read 04BE  
 _RF_MODEM_AFC_LIMITER_1_3_data 03C0                       ??_rx_init 007A                __end_of_rx_start 0687  
                spi_read_fifo@i 0052                  __pcstackCOMMON 0070              __size_of_check_cts 0016  
            __size_of_delay_1ms 002B    __size_of_enable_rx_interrupt 0020                      __pbssBANK0 0020  
_RF_MODEM_TX_RAMP_DELAY_12_data 0385                      _delay_10ms 0609        _RF_FRR_CTL_A_MODE_4_data 03B8  
                    __pmaintext 03D7                      __pintentry 0004              __size_of_sdn_reset 0040  
                       ?_nop_10 0070                      _fifo_reset 06B6              __size_of_port_init 0010  
            __size_of_spi_write 0038               __end_of_check_cts 06B6               __end_of_delay_1ms 0609  
         __end_of_clr_interrupt 066B                       ?_spi_byte 0070                       ?_spi_read 0057  
                    check_cts@i 0078                       ?_rx_start 0070                 __size_of_nop_10 000B  
          __size_of_timer1_init 000E                      delay_1ms@i 0076                         _rx_init 06C9  
                    _rf_timeout 004F            end_of_initialization 0709               __end_of_sdn_reset 04FE  
                 ??_delay_x10ms 0078                     ?_delay_10ms 0070             delay_1ms@delay_time 0074  
         __end_of_spi_read_fifo 053C               __end_of_port_init 06E9               __end_of_spi_write 0574  
                    ??_spi_byte 0074                      ??_spi_read 0058                      ??_rx_start 0057  
             _COE13_7_0_12_data 0345                       _ISR_timer 0574                     ?_fifo_reset 0070  
                 ??_SI4463_init 0057             _enable_rx_interrupt 062F                      main@chksum 006D  
                    _tx_ph_data 0310             __end_of_delay_x10ms 06A0            ?_enable_rx_interrupt 0070  
                    ?_ISR_timer 0070                  __end_of_nop_10 0702             __size_of_delay_10ms 0026  
           start_initialization 0702       _RF_MODEM_MOD_TYPE_12_data 0375      _RF_MODEM_FREQ_DEV_0_1_data 03D2  
           __end_of_SI4463_init 0287             __size_of_fifo_reset 0013                        ??_nop_10 0074  
         ??_enable_rx_interrupt 0057                   __pcstackBANK0 0052            enable_rx_interrupt@p 0058  
                   _delay_x10ms 0687                       _check_cts 06A0                       _delay_1ms 05DE  
                     __ptext480 06B6                       __ptext481 0013                       __ptext490 06E9  
                     __ptext482 053C                       __ptext491 06F7                       __ptext483 04FE  
                     __ptext475 06C9                       __ptext492 06D9                       __ptext484 06A0  
                     __ptext476 064F                       __ptext493 0574                       __ptext485 04BE  
                     __ptext477 066B                       __ptext494 0000                       __ptext486 0687  
                     __ptext478 062F                       __ptext487 0609                       __ptext479 0465  
                     __ptext488 05AB                       __ptext489 05DE               __size_of_spi_byte 0033  
             __size_of_spi_read 0059                     ??_ISR_timer 0070                       __pstrings 0300  
             __size_of_rx_start 001C                      sdn_reset@i 0079                       _count_1hz 004D  
                      ?_rx_init 0070                     _SI4463_init 0013                    ??_delay_10ms 0074  
             interrupt_function 0004                      ?_check_cts 0070                       _sdn_reset 04BE  
                    ?_delay_1ms 0074                   ??_timer1_init 0074                    delay_x10ms@j 0078  
                     _port_init 06D9                       _spi_write 053C                     __stringbase 030F  
                  ??_fifo_reset 0057                _COE1_7_0_12_data 0355              __end_of_delay_10ms 062F  
        __size_of_clr_interrupt 001C                      spi_write@i 0056                      spi_write@j 0055  
                    spi_write@p 0052                      ?_sdn_reset 0070              __end_of_fifo_reset 06C9  
                    ?_port_init 0070                      ?_spi_write 0052             __end_of_timer1_init 06F7  
        __size_of_spi_read_fifo 003E                     delay_10ms@i 0074                __size_of_rx_init 0010  
                 __size_of_main 008E                     ??_check_cts 0077               delay_x10ms@dx10ms 0076  
                   ??_delay_1ms 0076      _RF_SYNTH_PFDCP_CPFF_7_data 03AD                        clear_ram 070C  
                 _clr_interrupt 064F                        _spi_byte 05AB                        _spi_read 0465  
                      _rx_start 066B                       spi_byte@i 0075                       spi_read@i 005B  
                     spi_read@p 005A     _RF_MODEM_RAW_SEARCH2_2_data 03C7                       rx_start@p 0058  
                      intlevel1 0000                    ?_delay_x10ms 0076     _RF_MODEM_AGC_CONTROL_1_data 03CD  
                   ??_sdn_reset 0078                   _spi_read_fifo 04FE                       stringcode 030A  
   __end_of_enable_rx_interrupt 064F                  ?_clr_interrupt 0070                     _timer1_init 06E9  
                   ??_port_init 0074                     ??_spi_write 0079                    _spi_read_buf 0039  
                      stringdir 030A                        stringtab 0300     _RF_FREQ_CONTROL_INTE_8_data 0395  
                  ?_SI4463_init 0070                  ?_spi_read_fifo 0070                     fifo_reset@p 0058  
